;--------------------------------------------------------
; File Created by SDCC : free open source ANSI-C Compiler
; Version 3.7.1 #10443 (MINGW64)
;--------------------------------------------------------
	.module main
	.optsdcc -mmcs51 --model-small
	
;--------------------------------------------------------
; Public variables in this module
;--------------------------------------------------------
	.globl _SendKey_PARM_2
	.globl _main
	.globl _SendKey
	.globl _DoUSBRelatedInit
	.globl _InitHardware
	.globl _HandleUSBEvents
	.globl _InitUSB
	.globl _InitTicks
	.globl _LEDBlink
	.globl _InitLED
	.globl _RI
	.globl _TI
	.globl _RB8
	.globl _TB8
	.globl _REN
	.globl _SM2
	.globl _SM1
	.globl _SM0
	.globl _RXD
	.globl _TXD
	.globl _INT0
	.globl _INT1
	.globl _T0
	.globl _T1
	.globl _WR
	.globl _RD
	.globl _PX0
	.globl _PT0
	.globl _PX1
	.globl _PT1
	.globl _PS
	.globl _EX0
	.globl _ET0
	.globl _EX1
	.globl _ET1
	.globl _ES
	.globl _EA
	.globl _IT0
	.globl _IE0
	.globl _IT1
	.globl _IE1
	.globl _TR0
	.globl _TF0
	.globl _TR1
	.globl _TF1
	.globl _P
	.globl _OV
	.globl _RS0
	.globl _RS1
	.globl _F0
	.globl _AC
	.globl _CY
	.globl _SBUF
	.globl _SCON
	.globl _IP
	.globl _IE
	.globl _TH1
	.globl _TH0
	.globl _TL1
	.globl _TL0
	.globl _TMOD
	.globl _TCON
	.globl _PCON
	.globl _DPH
	.globl _DPL
	.globl _SP
	.globl _B
	.globl _ACC
	.globl _PSW
	.globl _P3
	.globl _P2
	.globl _P1
	.globl _P0
	.globl _PRAMCTL
	.globl _BANK2PAH
	.globl _BANK2PAL
	.globl _BANK2VA
	.globl _BANK1PAH
	.globl _BANK1PAL
	.globl _BANK1VA
	.globl _BANK0PAH
	.globl _BANK0PAL
	.globl _WARMSTATUS
	.globl _GPIO0OUT
	.globl _GPIO0DIR
	.globl _DMACMD
	.globl _DMAFILL3
	.globl _DMAFILL2
	.globl _DMAFILL1
	.globl _DMAFILL0
	.globl _DMASIZEH
	.globl _DMASIZEM
	.globl _DMASIZEL
	.globl _DMADSTH
	.globl _DMADSTM
	.globl _DMADSTL
	.globl _DMASRCH
	.globl _DMASRCM
	.globl _DMASRCL
	.globl _NANDCSDIR
	.globl _NANDCSOUT
	.globl _EP4
	.globl _EP3
	.globl _EP2
	.globl _EP1
	.globl _EP0
	.globl _SETUPDAT
	.globl _EP0CS
	.globl _EPIE
	.globl _EPIRQ
	.globl _USBIRQ
	.globl _USBSTAT
	.globl _USBCTL
	.globl _REGBANK
	.globl _wait_tick
	.globl _wait_counter
	.globl _send_keys_enabled
	.globl _key_index
;--------------------------------------------------------
; special function registers
;--------------------------------------------------------
	.area RSEG    (ABS,DATA)
	.org 0x0000
_P0	=	0x0080
_P1	=	0x0090
_P2	=	0x00a0
_P3	=	0x00b0
_PSW	=	0x00d0
_ACC	=	0x00e0
_B	=	0x00f0
_SP	=	0x0081
_DPL	=	0x0082
_DPH	=	0x0083
_PCON	=	0x0087
_TCON	=	0x0088
_TMOD	=	0x0089
_TL0	=	0x008a
_TL1	=	0x008b
_TH0	=	0x008c
_TH1	=	0x008d
_IE	=	0x00a8
_IP	=	0x00b8
_SCON	=	0x0098
_SBUF	=	0x0099
;--------------------------------------------------------
; special function bits
;--------------------------------------------------------
	.area RSEG    (ABS,DATA)
	.org 0x0000
_CY	=	0x00d7
_AC	=	0x00d6
_F0	=	0x00d5
_RS1	=	0x00d4
_RS0	=	0x00d3
_OV	=	0x00d2
_P	=	0x00d0
_TF1	=	0x008f
_TR1	=	0x008e
_TF0	=	0x008d
_TR0	=	0x008c
_IE1	=	0x008b
_IT1	=	0x008a
_IE0	=	0x0089
_IT0	=	0x0088
_EA	=	0x00af
_ES	=	0x00ac
_ET1	=	0x00ab
_EX1	=	0x00aa
_ET0	=	0x00a9
_EX0	=	0x00a8
_PS	=	0x00bc
_PT1	=	0x00bb
_PX1	=	0x00ba
_PT0	=	0x00b9
_PX0	=	0x00b8
_RD	=	0x00b7
_WR	=	0x00b6
_T1	=	0x00b5
_T0	=	0x00b4
_INT1	=	0x00b3
_INT0	=	0x00b2
_TXD	=	0x00b1
_RXD	=	0x00b0
_SM0	=	0x009f
_SM1	=	0x009e
_SM2	=	0x009d
_REN	=	0x009c
_TB8	=	0x009b
_RB8	=	0x009a
_TI	=	0x0099
_RI	=	0x0098
;--------------------------------------------------------
; overlayable register banks
;--------------------------------------------------------
	.area REG_BANK_0	(REL,OVR,DATA)
	.ds 8
;--------------------------------------------------------
; internal ram data
;--------------------------------------------------------
	.area DSEG    (DATA)
_key_index::
	.ds 2
_send_keys_enabled::
	.ds 1
_wait_counter::
	.ds 4
_wait_tick::
	.ds 4
;--------------------------------------------------------
; overlayable items in internal ram 
;--------------------------------------------------------
	.area	OSEG    (OVR,DATA)
_SendKey_PARM_2:
	.ds 1
;--------------------------------------------------------
; Stack segment in internal ram 
;--------------------------------------------------------
	.area	SSEG
__start__stack:
	.ds	1

;--------------------------------------------------------
; indirectly addressable internal ram data
;--------------------------------------------------------
	.area ISEG    (DATA)
;--------------------------------------------------------
; absolute internal ram data
;--------------------------------------------------------
	.area IABS    (ABS,DATA)
	.area IABS    (ABS,DATA)
;--------------------------------------------------------
; bit data
;--------------------------------------------------------
	.area BSEG    (BIT)
;--------------------------------------------------------
; paged external ram data
;--------------------------------------------------------
	.area PSEG    (PAG,XDATA)
;--------------------------------------------------------
; external ram data
;--------------------------------------------------------
	.area XSEG    (XDATA)
_REGBANK	=	0xf000
_USBCTL	=	0xf008
_USBSTAT	=	0xf009
_USBIRQ	=	0xf027
_EPIRQ	=	0xf020
_EPIE	=	0xf030
_EP0CS	=	0xf048
_SETUPDAT	=	0xf0b8
_EP0	=	0xf1c0
_EP1	=	0xf200
_EP2	=	0xf240
_EP3	=	0xf280
_EP4	=	0xf2c0
_NANDCSOUT	=	0xf608
_NANDCSDIR	=	0xf618
_DMASRCL	=	0xf900
_DMASRCM	=	0xf901
_DMASRCH	=	0xf902
_DMADSTL	=	0xf904
_DMADSTM	=	0xf905
_DMADSTH	=	0xf906
_DMASIZEL	=	0xf908
_DMASIZEM	=	0xf909
_DMASIZEH	=	0xf90a
_DMAFILL0	=	0xf90c
_DMAFILL1	=	0xf90d
_DMAFILL2	=	0xf90e
_DMAFILL3	=	0xf90f
_DMACMD	=	0xf930
_GPIO0DIR	=	0xfa14
_GPIO0OUT	=	0xfa15
_WARMSTATUS	=	0xfa38
_BANK0PAL	=	0xfa40
_BANK0PAH	=	0xfa41
_BANK1VA	=	0xfa42
_BANK1PAL	=	0xfa43
_BANK1PAH	=	0xfa44
_BANK2VA	=	0xfa45
_BANK2PAL	=	0xfa46
_BANK2PAH	=	0xfa47
_PRAMCTL	=	0xfa48
;--------------------------------------------------------
; absolute external ram data
;--------------------------------------------------------
	.area XABS    (ABS,XDATA)
;--------------------------------------------------------
; external initialized ram data
;--------------------------------------------------------
	.area XISEG   (XDATA)
	.area HOME    (CODE)
	.area GSINIT0 (CODE)
	.area GSINIT1 (CODE)
	.area GSINIT2 (CODE)
	.area GSINIT3 (CODE)
	.area GSINIT4 (CODE)
	.area GSINIT5 (CODE)
	.area GSINIT  (CODE)
	.area GSFINAL (CODE)
	.area CSEG    (CODE)
;--------------------------------------------------------
; interrupt vector 
;--------------------------------------------------------
	.area HOME    (CODE)
__interrupt_vect:
	ljmp	__sdcc_gsinit_startup
	ljmp	_usb_isr
	.ds	5
	ljmp	_tmr0isr
	.ds	5
	ljmp	_ep_isr
	.ds	5
	ljmp	_tmr1isr
	.ds	5
	ljmp	_com0isr
;--------------------------------------------------------
; global & static initialisations
;--------------------------------------------------------
	.area HOME    (CODE)
	.area GSINIT  (CODE)
	.area GSFINAL (CODE)
	.area GSINIT  (CODE)
	.globl __sdcc_gsinit_startup
	.globl __sdcc_program_startup
	.globl __start__stack
	.globl __mcs51_genXINIT
	.globl __mcs51_genXRAMCLEAR
	.globl __mcs51_genRAMCLEAR
;	main.c:20: int key_index = 0;
	clr	a
	mov	_key_index,a
	mov	(_key_index + 1),a
;	main.c:21: volatile BYTE send_keys_enabled = 0;
;	1-genFromRTrack replaced	mov	_send_keys_enabled,#0x00
	mov	_send_keys_enabled,a
;	main.c:22: DWORD wait_counter = KEY_DELAY;
	mov	_wait_counter,a
	mov	(_wait_counter + 1),#0x20
	mov	(_wait_counter + 2),a
	mov	(_wait_counter + 3),a
	.area GSFINAL (CODE)
	ljmp	__sdcc_program_startup
;--------------------------------------------------------
; Home
;--------------------------------------------------------
	.area HOME    (CODE)
	.area HOME    (CODE)
__sdcc_program_startup:
	ljmp	_main
;	return from main will return to caller
;--------------------------------------------------------
; code
;--------------------------------------------------------
	.area CSEG    (CODE)
;------------------------------------------------------------
;Allocation info for local variables in function 'InitHardware'
;------------------------------------------------------------
;	main.c:25: void InitHardware()
;	-----------------------------------------
;	 function InitHardware
;	-----------------------------------------
_InitHardware:
	ar7 = 0x07
	ar6 = 0x06
	ar5 = 0x05
	ar4 = 0x04
	ar3 = 0x03
	ar2 = 0x02
	ar1 = 0x01
	ar0 = 0x00
;	main.c:28: BANK0PAL = BANK0_PA>>9;
	mov	dptr,#_BANK0PAL
	mov	a,#0x40
	movx	@dptr,a
;	main.c:29: BANK0PAH = BANK0_PA>>17;
	mov	dptr,#_BANK0PAH
	clr	a
	movx	@dptr,a
;	main.c:30: BANK1VA  = BANK1_VA>>8;
	mov	dptr,#_BANK1VA
	mov	a,#0x40
	movx	@dptr,a
;	main.c:31: BANK1PAL = BANK1_PA>>9;
	mov	dptr,#_BANK1PAL
	mov	a,#0x60
	movx	@dptr,a
;	main.c:32: BANK1PAH = BANK1_PA>>17;
	mov	dptr,#_BANK1PAH
	clr	a
	movx	@dptr,a
;	main.c:33: BANK2VA  = BANK2_VA>>8;
	mov	dptr,#_BANK2VA
	mov	a,#0x60
	movx	@dptr,a
;	main.c:34: BANK2PAL = BANK2_PA>>9;
	mov	dptr,#_BANK2PAL
	mov	a,#0x70
	movx	@dptr,a
;	main.c:35: BANK2PAH = BANK2_PA>>17;
	mov	dptr,#_BANK2PAH
	clr	a
	movx	@dptr,a
;	main.c:208: __endasm;
	.db	0x90
	.db	0xF8
	.db	0x0A
	.db	0x74
	.db	0x1F
	.db	0xF0
	.db	0x90
	.db	0xF8
	.db	0x0E
	.db	0xE4
	.db	0xF0
	.db	0x90
	.db	0xF8
	.db	0x09
	.db	0x74
	.db	0x2C
	.db	0xF0
	.db	0x90
	.db	0xF8
	.db	0x10
	.db	0x74
	.db	0x80
	.db	0xF0
	.db	0xA3
	.db	0xE4
	.db	0xF0
	.db	0x90
	.db	0xF0
	.db	0x09
	.db	0xE0
	.db	0x54
	.db	0x07
	.db	0x64
	.db	0x04
	jnz	HELL
	.db	0x90
	.db	0xFA
	.db	0x60
	.db	0xE4
	.db	0xF0
	.db	0xA3
	.db	0x74
	.db	0x0F
	.db	0xF0
	.db	0xA3
	.db	0xF0
	.db	0x90
	.db	0xFA
	.db	0x64
	.db	0x74
	.db	0x08
	.db	0xF0
	.db	0xA3
	.db	0x04
	.db	0xF0
	.db	0xA3
	.db	0x14
	.db	0xF0
	.db	0xA3
	.db	0x04
	.db	0xF0
	sjmp	HEAVEN
	 HELL:
	.db	0x90
	.db	0xFA
	.db	0x60
	.db	0xE4
	.db	0xF0
	.db	0xA3
	.db	0x74
	.db	0x0F
	.db	0xF0
	.db	0xA3
	.db	0xF0
	.db	0x90
	.db	0xFA
	.db	0x64
	.db	0x74
	.db	0x02
	.db	0xF0
	.db	0xA3
	.db	0xF0
	.db	0xA3
	.db	0xF0
	.db	0xA3
	.db	0xF0
	 HEAVEN:
	.db	0x90
	.db	0xFF
	.db	0x00
	.db	0xE0
	.db	0x54
	.db	0xFB
	.db	0xF0
	.db	0xE0
	.db	0x44
	.db	0x04
	.db	0xF0
	.db	0xE0
	.db	0x44
	.db	0x10
	.db	0xF0
	.db	0xE0
	.db	0x54
	.db	0xFC
	.db	0xF0
	.db	0x90
	.db	0xFF
	.db	0x03
	.db	0x74
	.db	0xC1
	.db	0xF0
	.db	0x90
	.db	0xFF
	.db	0x0C
	.db	0xE0
	.db	0x30
	.db	0xE0
	.db	0xF9
	.db	0x90
	.db	0xFF
	.db	0x13
	.db	0xE0
	.db	0x54
	.db	0xFE
	.db	0xF0
	.db	0x90
	.db	0xFF
	.db	0x0C
	.db	0xE0
	.db	0x20
	.db	0xE1
	.db	0x07
	.db	0x90
	.db	0xFF
	.db	0x13
	.db	0xE0
	.db	0x44
	.db	0x10
	.db	0xF0
	.db	0x90
	.db	0xFA
	.db	0x6F
	.db	0xE0
	.db	0x44
	.db	0x1D
	.db	0xF0
	.db	0x90
	.db	0xFA
	.db	0x14
	.db	0xE0
	.db	0x54
	.db	0xFD
	.db	0xF0
	.db	0xA3
	.db	0xE0
	.db	0x44
	.db	0x02
	.db	0xF0
	.db	0x90
	.db	0xFA
	.db	0x21
	.db	0x74
	.db	0x07
	.db	0xF0
	.db	0x90
	.db	0xFA
	.db	0x20
	.db	0xE4
	.db	0xF0
;	main.c:210: XVAL(0xFA68) &= 0xF7;
	mov	dptr,#0xfa68
	movx	a,@dptr
	anl	a,#0xf7
	movx	@dptr,a
;	main.c:211: XVAL(0xFA69) &= 0xF7;
	mov	dptr,#0xfa69
	movx	a,@dptr
	anl	a,#0xf7
	movx	@dptr,a
;	main.c:212: XVAL(0xFA6A) &= 0xF7;
	mov	dptr,#0xfa6a
	movx	a,@dptr
	anl	a,#0xf7
	movx	@dptr,a
;	main.c:213: XVAL(0xFA6B) &= 0xF7;
	mov	dptr,#0xfa6b
	movx	a,@dptr
	anl	a,#0xf7
	movx	@dptr,a
;	main.c:215: TMOD = 0x11;
	mov	_TMOD,#0x11
;	main.c:216: TH0 = 0xF0;
	mov	_TH0,#0xf0
;	main.c:217: TL0 = 0x5F;
	mov	_TL0,#0x5f
;	main.c:218: TH1 = 0xF0;
	mov	_TH1,#0xf0
;	main.c:219: TL1 = 0x5F;
	mov	_TL1,#0x5f
;	main.c:220: IP = 1;
	mov	_IP,#0x01
;	main.c:221: TCON = 0x10;
	mov	_TCON,#0x10
;	main.c:222: SCON = 0;
	mov	_SCON,#0x00
;	main.c:223: IE = 0x80;
	mov	_IE,#0x80
;	main.c:224: }
	ret
;------------------------------------------------------------
;Allocation info for local variables in function 'DoUSBRelatedInit'
;------------------------------------------------------------
;	main.c:226: void DoUSBRelatedInit()
;	-----------------------------------------
;	 function DoUSBRelatedInit
;	-----------------------------------------
_DoUSBRelatedInit:
;	main.c:228: if (WARMSTATUS & 2)
	mov	dptr,#_WARMSTATUS
	movx	a,@dptr
	jnb	acc.1,00102$
;	main.c:230: return;
	ret
00102$:
;	main.c:233: REGBANK = 5;
	mov	dptr,#_REGBANK
	mov	a,#0x05
	movx	@dptr,a
;	main.c:419: __endasm;
	.db	0x90
	.db	0xF2
	.db	0x00
	.db	0xE0
	.db	0x54
	.db	0xFE
	.db	0xF0
	.db	0x90
	.db	0xF0
	.db	0x00
	.db	0x74
	.db	0x05
	.db	0xF0
	.db	0x90
	.db	0xF2
	.db	0x13
	.db	0x74
	.db	0x30
	.db	0xF0
	.db	0x90
	.db	0x6C
	.db	0xD1
	.db	0xE0
	.db	0xFF
	.db	0x70
	.db	0x0C
	.db	0x90
	.db	0x6C
	.db	0xD0
	.db	0xE0
	.db	0x70
	.db	0x06
	.db	0x90
	.db	0x6C
	.db	0xD2
	.db	0xE0
	.db	0x60
	.db	0x1B
	.db	0x90
	.db	0x6C
	.db	0xD2
	.db	0xE0
	.db	0x90
	.db	0xF2
	.db	0x14
	.db	0xF0
	.db	0x90
	.db	0x6C
	.db	0xD0
	.db	0xE0
	.db	0x90
	.db	0xF2
	.db	0x15
	.db	0xF0
	.db	0xA3
	.db	0xE0
	.db	0x4F
	.db	0xF0
	.db	0x90
	.db	0xF2
	.db	0x13
	.db	0xE0
	.db	0x54
	.db	0xEF
	.db	0xF0
	.db	0x90
	.db	0x6C
	.db	0xD4
	.db	0xE0
	.db	0xFF
	.db	0x70
	.db	0x0C
	.db	0x90
	.db	0x6C
	.db	0xD3
	.db	0xE0
	.db	0x70
	.db	0x06
	.db	0x90
	.db	0x6C
	.db	0xD5
	.db	0xE0
	.db	0x60
	.db	0x36
	.db	0x90
	.db	0xF2
	.db	0x13
	.db	0xE0
	.db	0x4F
	.db	0xF0
	.db	0x90
	.db	0x6C
	.db	0xD3
	.db	0xE0
	.db	0xFE
	.db	0x90
	.db	0xF2
	.db	0x12
	.db	0xF0
	.db	0x90
	.db	0x6C
	.db	0xD5
	.db	0xE0
	.db	0x90
	.db	0xF2
	.db	0x11
	.db	0xF0
	.db	0xEE
	.db	0x24
	.db	0x9A
	.db	0x90
	.db	0xF2
	.db	0x17
	.db	0xF0
	.db	0xA3
	.db	0xE0
	.db	0x54
	.db	0xF0
	.db	0xF0
	.db	0xE0
	.db	0x4F
	.db	0xF0
	.db	0x90
	.db	0x6C
	.db	0xD3
	.db	0xE0
	.db	0xC3
	.db	0x94
	.db	0x66
	.db	0x50
	.db	0x07
	.db	0x90
	.db	0xF2
	.db	0x18
	.db	0xE0
	.db	0x44
	.db	0x0F
	.db	0xF0
	.db	0x90
	.db	0xF2
	.db	0x28
	.db	0x74
	.db	0x24
	.db	0xF0
	.db	0x90
	.db	0xF2
	.db	0x10
	.db	0xE0
	.db	0x54
	.db	0xF7
	.db	0xF0
	.db	0x90
	.db	0xF0
	.db	0x00
	.db	0xE4
	.db	0xF0
	.db	0x90
	.db	0xF0
	.db	0x14
	.db	0xE0
	.db	0x54
	.db	0xBF
	.db	0xF0
	.db	0x90
	.db	0xFA
	.db	0x6F
	.db	0xE0
	.db	0x44
	.db	0x10
	.db	0xF0
	.db	0x90
	.db	0xF0
	.db	0x14
	.db	0xE0
	.db	0x54
	.db	0x03
	.db	0x60
	.db	0xF8
	.db	0x90
	.db	0xFA
	.db	0x6B
	.db	0x74
	.db	0xFF
	.db	0xF0
;	main.c:420: }
	ret
;------------------------------------------------------------
;Allocation info for local variables in function 'SendKey'
;------------------------------------------------------------
;modifiers                 Allocated with name '_SendKey_PARM_2'
;code                      Allocated to registers r7 
;i                         Allocated to registers r6 r7 
;------------------------------------------------------------
;	main.c:422: void SendKey(BYTE code, BYTE modifiers)
;	-----------------------------------------
;	 function SendKey
;	-----------------------------------------
_SendKey:
	mov	r7,dpl
;	main.c:426: EP3.cs = 0;
	mov	dptr,#(_EP3 + 0x0013)
	clr	a
	movx	@dptr,a
;	main.c:427: while (EP3.cs & 0x40);
00101$:
	mov	dptr,#(_EP3 + 0x0013)
	movx	a,@dptr
	mov	r6,a
	jb	acc.6,00101$
;	main.c:429: EP3.fifo = modifiers;
;	main.c:430: EP3.fifo = 0;
;	main.c:431: EP3.fifo = code;
	mov	dptr,#(_EP3 + 0x001c)
	mov	a,_SendKey_PARM_2
	movx	@dptr,a
	clr	a
	movx	@dptr,a
	mov	a,r7
	movx	@dptr,a
;	main.c:432: for (i = 0; i < 5; i++)
	mov	r6,#0x00
	mov	r7,#0x00
00105$:
;	main.c:434: EP3.fifo = 0;
	mov	dptr,#(_EP3 + 0x001c)
	clr	a
	movx	@dptr,a
;	main.c:432: for (i = 0; i < 5; i++)
	inc	r6
	cjne	r6,#0x00,00127$
	inc	r7
00127$:
	clr	c
	mov	a,r6
	subb	a,#0x05
	mov	a,r7
	xrl	a,#0x80
	subb	a,#0x80
	jc	00105$
;	main.c:437: EP3.len_l = 8;
	mov	dptr,#(_EP3 + 0x000c)
	mov	a,#0x08
	movx	@dptr,a
;	main.c:438: EP3.len_m = 0;
	mov	dptr,#(_EP3 + 0x000d)
	clr	a
	movx	@dptr,a
;	main.c:439: EP3.len_h = 0;
	mov	dptr,#(_EP3 + 0x000e)
	movx	@dptr,a
;	main.c:440: EP3.cs = 0x40;
	mov	dptr,#(_EP3 + 0x0013)
	mov	a,#0x40
	movx	@dptr,a
;	main.c:441: }
	ret
;------------------------------------------------------------
;Allocation info for local variables in function 'main'
;------------------------------------------------------------
;	main.c:443: void main()
;	-----------------------------------------
;	 function main
;	-----------------------------------------
_main:
;	main.c:445: InitHardware();
	lcall	_InitHardware
;	main.c:446: DoUSBRelatedInit();
	lcall	_DoUSBRelatedInit
;	main.c:447: InitUSB();
	lcall	_InitUSB
;	main.c:448: InitTicks();
	lcall	_InitTicks
;	main.c:449: InitLED();
	lcall	_InitLED
;	main.c:450: LEDBlink();
	lcall	_LEDBlink
;	main.c:452: while (1)
00114$:
;	main.c:454: HandleUSBEvents();
	lcall	_HandleUSBEvents
;	main.c:456: if (wait_tick++ >= KEY_DELAY)
	mov	r4,_wait_tick
	mov	r5,(_wait_tick + 1)
	mov	r6,(_wait_tick + 2)
	mov	r7,(_wait_tick + 3)
	inc	_wait_tick
	clr	a
	cjne	a,_wait_tick,00146$
	inc	(_wait_tick + 1)
	cjne	a,(_wait_tick + 1),00146$
	inc	(_wait_tick + 2)
	cjne	a,(_wait_tick + 2),00146$
	inc	(_wait_tick + 3)
00146$:
	clr	c
	mov	a,r5
	subb	a,#0x20
	mov	a,r6
	subb	a,#0x00
	mov	a,r7
	subb	a,#0x00
;	main.c:458: if (wait_counter < KEY_DELAY)
	jc	00104$
	mov	a,(_wait_counter + 1)
	subb	a,#0x20
	mov	a,(_wait_counter + 2)
	subb	a,#0x00
	mov	a,(_wait_counter + 3)
	subb	a,#0x00
	jnc	00104$
;	main.c:460: wait_counter++;
	inc	_wait_counter
	clr	a
	cjne	a,_wait_counter,00149$
	inc	(_wait_counter + 1)
	cjne	a,(_wait_counter + 1),00149$
	inc	(_wait_counter + 2)
	cjne	a,(_wait_counter + 2),00149$
	inc	(_wait_counter + 3)
00149$:
00104$:
;	main.c:464: if (send_keys_enabled && wait_counter >= KEY_DELAY)
	mov	a,_send_keys_enabled
	jz	00114$
	clr	c
	mov	a,(_wait_counter + 1)
	subb	a,#0x20
	mov	a,(_wait_counter + 2)
	subb	a,#0x00
	mov	a,(_wait_counter + 3)
	subb	a,#0x00
	jc	00114$
;	main.c:466: if (keyData[key_index])
	mov	a,_key_index
	add	a,#_keyData
	mov	r6,a
	mov	a,(_key_index + 1)
	addc	a,#(_keyData >> 8)
	mov	r7,a
	mov	dpl,r6
	mov	dph,r7
	clr	a
	movc	a,@a+dptr
	jz	00106$
;	main.c:469: SendKey(0x00, 0x00);
	mov	_SendKey_PARM_2,#0x00
	mov	dpl,#0x00
	lcall	_SendKey
;	main.c:470: SendKey(0x00, 0x00);
	mov	_SendKey_PARM_2,#0x00
	mov	dpl,#0x00
	lcall	_SendKey
;	main.c:471: SendKey(0x00, 0x00);
	mov	_SendKey_PARM_2,#0x00
	mov	dpl,#0x00
	lcall	_SendKey
;	main.c:472: SendKey(0x00, 0x00);
	mov	_SendKey_PARM_2,#0x00
	mov	dpl,#0x00
	lcall	_SendKey
;	main.c:473: SendKey(keyData[key_index], keyData[key_index + 1]);
	mov	a,_key_index
	add	a,#_keyData
	mov	dpl,a
	mov	a,(_key_index + 1)
	addc	a,#(_keyData >> 8)
	mov	dph,a
	clr	a
	movc	a,@a+dptr
	mov	r7,a
	mov	a,#0x01
	add	a,_key_index
	mov	r5,a
	clr	a
	addc	a,(_key_index + 1)
	mov	r6,a
	mov	a,r5
	add	a,#_keyData
	mov	dpl,a
	mov	a,r6
	addc	a,#(_keyData >> 8)
	mov	dph,a
	clr	a
	movc	a,@a+dptr
	mov	_SendKey_PARM_2,a
	mov	dpl,r7
	lcall	_SendKey
;	main.c:474: SendKey(0x00, 0x00);
	mov	_SendKey_PARM_2,#0x00
	mov	dpl,#0x00
	lcall	_SendKey
	sjmp	00107$
00106$:
;	main.c:479: wait_counter = 0;
	clr	a
	mov	_wait_counter,a
	mov	(_wait_counter + 1),a
	mov	(_wait_counter + 2),a
	mov	(_wait_counter + 3),a
;	main.c:480: wait_tick = 0;
	mov	_wait_tick,a
	mov	(_wait_tick + 1),a
	mov	(_wait_tick + 2),a
	mov	(_wait_tick + 3),a
00107$:
;	main.c:484: key_index += 2;
	mov	a,#0x02
	add	a,_key_index
	mov	_key_index,a
	clr	a
	addc	a,(_key_index + 1)
;	main.c:487: if (key_index >= sizeof(keyData))
	mov	(_key_index + 1),a
	clr	c
	xrl	a,#0x80
	subb	a,#0xa0
	jnc	00153$
	ljmp	00114$
00153$:
;	main.c:489: send_keys_enabled = 0;
	mov	_send_keys_enabled,#0x00
;	main.c:493: }
	ljmp	00114$
	.area CSEG    (CODE)
	.area CONST   (CODE)
_keyData:
	.db #0x12	; 18
	.db #0x34	; 52	'4'
	.db #0x56	; 86	'V'
	.db #0x78	; 120	'x'
	.db 0x00
	.db 0x00
	.db 0x00
	.db 0x00
	.db 0x00
	.db 0x00
	.db 0x00
	.db 0x00
	.db 0x00
	.db 0x00
	.db 0x00
	.db 0x00
	.db 0x00
	.db 0x00
	.db 0x00
	.db 0x00
	.db 0x00
	.db 0x00
	.db 0x00
	.db 0x00
	.db 0x00
	.db 0x00
	.db 0x00
	.db 0x00
	.db 0x00
	.db 0x00
	.db 0x00
	.db 0x00
	.db 0x00
	.db 0x00
	.db 0x00
	.db 0x00
	.db 0x00
	.db 0x00
	.db 0x00
	.db 0x00
	.db 0x00
	.db 0x00
	.db 0x00
	.db 0x00
	.db 0x00
	.db 0x00
	.db 0x00
	.db 0x00
	.db 0x00
	.db 0x00
	.db 0x00
	.db 0x00
	.db 0x00
	.db 0x00
	.db 0x00
	.db 0x00
	.db 0x00
	.db 0x00
	.db 0x00
	.db 0x00
	.db 0x00
	.db 0x00
	.db 0x00
	.db 0x00
	.db 0x00
	.db 0x00
	.db 0x00
	.db 0x00
	.db 0x00
	.db 0x00
	.db 0x00
	.db 0x00
	.db 0x00
	.db 0x00
	.db 0x00
	.db 0x00
	.db 0x00
	.db 0x00
	.db 0x00
	.db 0x00
	.db 0x00
	.db 0x00
	.db 0x00
	.db 0x00
	.db 0x00
	.db 0x00
	.db 0x00
	.db 0x00
	.db 0x00
	.db 0x00
	.db 0x00
	.db 0x00
	.db 0x00
	.db 0x00
	.db 0x00
	.db 0x00
	.db 0x00
	.db 0x00
	.db 0x00
	.db 0x00
	.db 0x00
	.db 0x00
	.db 0x00
	.db 0x00
	.db 0x00
	.db 0x00
	.db 0x00
	.db 0x00
	.db 0x00
	.db 0x00
	.db 0x00
	.db 0x00
	.db 0x00
	.db 0x00
	.db 0x00
	.db 0x00
	.db 0x00
	.db 0x00
	.db 0x00
	.db 0x00
	.db 0x00
	.db 0x00
	.db 0x00
	.db 0x00
	.db 0x00
	.db 0x00
	.db 0x00
	.db 0x00
	.db 0x00
	.db 0x00
	.db 0x00
	.db 0x00
	.db 0x00
	.db 0x00
	.db 0x00
	.db 0x00
	.db 0x00
	.db 0x00
	.db 0x00
	.db 0x00
	.db 0x00
	.db 0x00
	.db 0x00
	.db 0x00
	.db 0x00
	.db 0x00
	.db 0x00
	.db 0x00
	.db 0x00
	.db 0x00
	.db 0x00
	.db 0x00
	.db 0x00
	.db 0x00
	.db 0x00
	.db 0x00
	.db 0x00
	.db 0x00
	.db 0x00
	.db 0x00
	.db 0x00
	.db 0x00
	.db 0x00
	.db 0x00
	.db 0x00
	.db 0x00
	.db 0x00
	.db 0x00
	.db 0x00
	.db 0x00
	.db 0x00
	.db 0x00
	.db 0x00
	.db 0x00
	.db 0x00
	.db 0x00
	.db 0x00
	.db 0x00
	.db 0x00
	.db 0x00
	.db 0x00
	.db 0x00
	.db 0x00
	.db 0x00
	.db 0x00
	.db 0x00
	.db 0x00
	.db 0x00
	.db 0x00
	.db 0x00
	.db 0x00
	.db 0x00
	.db 0x00
	.db 0x00
	.db 0x00
	.db 0x00
	.db 0x00
	.db 0x00
	.db 0x00
	.db 0x00
	.db 0x00
	.db 0x00
	.db 0x00
	.db 0x00
	.db 0x00
	.db 0x00
	.db 0x00
	.db 0x00
	.db 0x00
	.db 0x00
	.db 0x00
	.db 0x00
	.db 0x00
	.db 0x00
	.db 0x00
	.db 0x00
	.db 0x00
	.db 0x00
	.db 0x00
	.db 0x00
	.db 0x00
	.db 0x00
	.db 0x00
	.db 0x00
	.db 0x00
	.db 0x00
	.db 0x00
	.db 0x00
	.db 0x00
	.db 0x00
	.db 0x00
	.db 0x00
	.db 0x00
	.db 0x00
	.db 0x00
	.db 0x00
	.db 0x00
	.db 0x00
	.db 0x00
	.db 0x00
	.db 0x00
	.db 0x00
	.db 0x00
	.db 0x00
	.db 0x00
	.db 0x00
	.db 0x00
	.db 0x00
	.db 0x00
	.db 0x00
	.db 0x00
	.db 0x00
	.db 0x00
	.db 0x00
	.db 0x00
	.db 0x00
	.db 0x00
	.db 0x00
	.db 0x00
	.db 0x00
	.db 0x00
	.db 0x00
	.db 0x00
	.db 0x00
	.db 0x00
	.db 0x00
	.db 0x00
	.db 0x00
	.db 0x00
	.db 0x00
	.db 0x00
	.db 0x00
	.db 0x00
	.db 0x00
	.db 0x00
	.db 0x00
	.db 0x00
	.db 0x00
	.db 0x00
	.db 0x00
	.db 0x00
	.db 0x00
	.db 0x00
	.db 0x00
	.db 0x00
	.db 0x00
	.db 0x00
	.db 0x00
	.db 0x00
	.db 0x00
	.db 0x00
	.db 0x00
	.db 0x00
	.db 0x00
	.db 0x00
	.db 0x00
	.db 0x00
	.db 0x00
	.db 0x00
	.db 0x00
	.db 0x00
	.db 0x00
	.db 0x00
	.db 0x00
	.db 0x00
	.db 0x00
	.db 0x00
	.db 0x00
	.db 0x00
	.db 0x00
	.db 0x00
	.db 0x00
	.db 0x00
	.db 0x00
	.db 0x00
	.db 0x00
	.db 0x00
	.db 0x00
	.db 0x00
	.db 0x00
	.db 0x00
	.db 0x00
	.db 0x00
	.db 0x00
	.db 0x00
	.db 0x00
	.db 0x00
	.db 0x00
	.db 0x00
	.db 0x00
	.db 0x00
	.db 0x00
	.db 0x00
	.db 0x00
	.db 0x00
	.db 0x00
	.db 0x00
	.db 0x00
	.db 0x00
	.db 0x00
	.db 0x00
	.db 0x00
	.db 0x00
	.db 0x00
	.db 0x00
	.db 0x00
	.db 0x00
	.db 0x00
	.db 0x00
	.db 0x00
	.db 0x00
	.db 0x00
	.db 0x00
	.db 0x00
	.db 0x00
	.db 0x00
	.db 0x00
	.db 0x00
	.db 0x00
	.db 0x00
	.db 0x00
	.db 0x00
	.db 0x00
	.db 0x00
	.db 0x00
	.db 0x00
	.db 0x00
	.db 0x00
	.db 0x00
	.db 0x00
	.db 0x00
	.db 0x00
	.db 0x00
	.db 0x00
	.db 0x00
	.db 0x00
	.db 0x00
	.db 0x00
	.db 0x00
	.db 0x00
	.db 0x00
	.db 0x00
	.db 0x00
	.db 0x00
	.db 0x00
	.db 0x00
	.db 0x00
	.db 0x00
	.db 0x00
	.db 0x00
	.db 0x00
	.db 0x00
	.db 0x00
	.db 0x00
	.db 0x00
	.db 0x00
	.db 0x00
	.db 0x00
	.db 0x00
	.db 0x00
	.db 0x00
	.db 0x00
	.db 0x00
	.db 0x00
	.db 0x00
	.db 0x00
	.db 0x00
	.db 0x00
	.db 0x00
	.db 0x00
	.db 0x00
	.db 0x00
	.db 0x00
	.db 0x00
	.db 0x00
	.db 0x00
	.db 0x00
	.db 0x00
	.db 0x00
	.db 0x00
	.db 0x00
	.db 0x00
	.db 0x00
	.db 0x00
	.db 0x00
	.db 0x00
	.db 0x00
	.db 0x00
	.db 0x00
	.db 0x00
	.db 0x00
	.db 0x00
	.db 0x00
	.db 0x00
	.db 0x00
	.db 0x00
	.db 0x00
	.db 0x00
	.db 0x00
	.db 0x00
	.db 0x00
	.db 0x00
	.db 0x00
	.db 0x00
	.db 0x00
	.db 0x00
	.db 0x00
	.db 0x00
	.db 0x00
	.db 0x00
	.db 0x00
	.db 0x00
	.db 0x00
	.db 0x00
	.db 0x00
	.db 0x00
	.db 0x00
	.db 0x00
	.db 0x00
	.db 0x00
	.db 0x00
	.db 0x00
	.db 0x00
	.db 0x00
	.db 0x00
	.db 0x00
	.db 0x00
	.db 0x00
	.db 0x00
	.db 0x00
	.db 0x00
	.db 0x00
	.db 0x00
	.db 0x00
	.db 0x00
	.db 0x00
	.db 0x00
	.db 0x00
	.db 0x00
	.db 0x00
	.db 0x00
	.db 0x00
	.db 0x00
	.db 0x00
	.db 0x00
	.db 0x00
	.db 0x00
	.db 0x00
	.db 0x00
	.db 0x00
	.db 0x00
	.db 0x00
	.db 0x00
	.db 0x00
	.db 0x00
	.db 0x00
	.db 0x00
	.db 0x00
	.db 0x00
	.db 0x00
	.db 0x00
	.db 0x00
	.db 0x00
	.db 0x00
	.db 0x00
	.db 0x00
	.db 0x00
	.db 0x00
	.db 0x00
	.db 0x00
	.db 0x00
	.db 0x00
	.db 0x00
	.db 0x00
	.db 0x00
	.db 0x00
	.db 0x00
	.db 0x00
	.db 0x00
	.db 0x00
	.db 0x00
	.db 0x00
	.db 0x00
	.db 0x00
	.db 0x00
	.db 0x00
	.db 0x00
	.db 0x00
	.db 0x00
	.db 0x00
	.db 0x00
	.db 0x00
	.db 0x00
	.db 0x00
	.db 0x00
	.db 0x00
	.db 0x00
	.db 0x00
	.db 0x00
	.db 0x00
	.db 0x00
	.db 0x00
	.db 0x00
	.db 0x00
	.db 0x00
	.db 0x00
	.db 0x00
	.db 0x00
	.db 0x00
	.db 0x00
	.db 0x00
	.db 0x00
	.db 0x00
	.db 0x00
	.db 0x00
	.db 0x00
	.db 0x00
	.db 0x00
	.db 0x00
	.db 0x00
	.db 0x00
	.db 0x00
	.db 0x00
	.db 0x00
	.db 0x00
	.db 0x00
	.db 0x00
	.db 0x00
	.db 0x00
	.db 0x00
	.db 0x00
	.db 0x00
	.db 0x00
	.db 0x00
	.db 0x00
	.db 0x00
	.db 0x00
	.db 0x00
	.db 0x00
	.db 0x00
	.db 0x00
	.db 0x00
	.db 0x00
	.db 0x00
	.db 0x00
	.db 0x00
	.db 0x00
	.db 0x00
	.db 0x00
	.db 0x00
	.db 0x00
	.db 0x00
	.db 0x00
	.db 0x00
	.db 0x00
	.db 0x00
	.db 0x00
	.db 0x00
	.db 0x00
	.db 0x00
	.db 0x00
	.db 0x00
	.db 0x00
	.db 0x00
	.db 0x00
	.db 0x00
	.db 0x00
	.db 0x00
	.db 0x00
	.db 0x00
	.db 0x00
	.db 0x00
	.db 0x00
	.db 0x00
	.db 0x00
	.db 0x00
	.db 0x00
	.db 0x00
	.db 0x00
	.db 0x00
	.db 0x00
	.db 0x00
	.db 0x00
	.db 0x00
	.db 0x00
	.db 0x00
	.db 0x00
	.db 0x00
	.db 0x00
	.db 0x00
	.db 0x00
	.db 0x00
	.db 0x00
	.db 0x00
	.db 0x00
	.db 0x00
	.db 0x00
	.db 0x00
	.db 0x00
	.db 0x00
	.db 0x00
	.db 0x00
	.db 0x00
	.db 0x00
	.db 0x00
	.db 0x00
	.db 0x00
	.db 0x00
	.db 0x00
	.db 0x00
	.db 0x00
	.db 0x00
	.db 0x00
	.db 0x00
	.db 0x00
	.db 0x00
	.db 0x00
	.db 0x00
	.db 0x00
	.db 0x00
	.db 0x00
	.db 0x00
	.db 0x00
	.db 0x00
	.db 0x00
	.db 0x00
	.db 0x00
	.db 0x00
	.db 0x00
	.db 0x00
	.db 0x00
	.db 0x00
	.db 0x00
	.db 0x00
	.db 0x00
	.db 0x00
	.db 0x00
	.db 0x00
	.db 0x00
	.db 0x00
	.db 0x00
	.db 0x00
	.db 0x00
	.db 0x00
	.db 0x00
	.db 0x00
	.db 0x00
	.db 0x00
	.db 0x00
	.db 0x00
	.db 0x00
	.db 0x00
	.db 0x00
	.db 0x00
	.db 0x00
	.db 0x00
	.db 0x00
	.db 0x00
	.db 0x00
	.db 0x00
	.db 0x00
	.db 0x00
	.db 0x00
	.db 0x00
	.db 0x00
	.db 0x00
	.db 0x00
	.db 0x00
	.db 0x00
	.db 0x00
	.db 0x00
	.db 0x00
	.db 0x00
	.db 0x00
	.db 0x00
	.db 0x00
	.db 0x00
	.db 0x00
	.db 0x00
	.db 0x00
	.db 0x00
	.db 0x00
	.db 0x00
	.db 0x00
	.db 0x00
	.db 0x00
	.db 0x00
	.db 0x00
	.db 0x00
	.db 0x00
	.db 0x00
	.db 0x00
	.db 0x00
	.db 0x00
	.db 0x00
	.db 0x00
	.db 0x00
	.db 0x00
	.db 0x00
	.db 0x00
	.db 0x00
	.db 0x00
	.db 0x00
	.db 0x00
	.db 0x00
	.db 0x00
	.db 0x00
	.db 0x00
	.db 0x00
	.db 0x00
	.db 0x00
	.db 0x00
	.db 0x00
	.db 0x00
	.db 0x00
	.db 0x00
	.db 0x00
	.db 0x00
	.db 0x00
	.db 0x00
	.db 0x00
	.db 0x00
	.db 0x00
	.db 0x00
	.db 0x00
	.db 0x00
	.db 0x00
	.db 0x00
	.db 0x00
	.db 0x00
	.db 0x00
	.db 0x00
	.db 0x00
	.db 0x00
	.db 0x00
	.db 0x00
	.db 0x00
	.db 0x00
	.db 0x00
	.db 0x00
	.db 0x00
	.db 0x00
	.db 0x00
	.db 0x00
	.db 0x00
	.db 0x00
	.db 0x00
	.db 0x00
	.db 0x00
	.db 0x00
	.db 0x00
	.db 0x00
	.db 0x00
	.db 0x00
	.db 0x00
	.db 0x00
	.db 0x00
	.db 0x00
	.db 0x00
	.db 0x00
	.db 0x00
	.db 0x00
	.db 0x00
	.db 0x00
	.db 0x00
	.db 0x00
	.db 0x00
	.db 0x00
	.db 0x00
	.db 0x00
	.db 0x00
	.db 0x00
	.db 0x00
	.db 0x00
	.db 0x00
	.db 0x00
	.db 0x00
	.db 0x00
	.db 0x00
	.db 0x00
	.db 0x00
	.db 0x00
	.db 0x00
	.db 0x00
	.db 0x00
	.db 0x00
	.db 0x00
	.db 0x00
	.db 0x00
	.db 0x00
	.db 0x00
	.db 0x00
	.db 0x00
	.db 0x00
	.db 0x00
	.db 0x00
	.db 0x00
	.db 0x00
	.db 0x00
	.db 0x00
	.db 0x00
	.db 0x00
	.db 0x00
	.db 0x00
	.db 0x00
	.db 0x00
	.db 0x00
	.db 0x00
	.db 0x00
	.db 0x00
	.db 0x00
	.db 0x00
	.db 0x00
	.db 0x00
	.db 0x00
	.db 0x00
	.db 0x00
	.db 0x00
	.db 0x00
	.db 0x00
	.db 0x00
	.db 0x00
	.db 0x00
	.db 0x00
	.db 0x00
	.db 0x00
	.db 0x00
	.db 0x00
	.db 0x00
	.db 0x00
	.db 0x00
	.db 0x00
	.db 0x00
	.db 0x00
	.db 0x00
	.db 0x00
	.db 0x00
	.db 0x00
	.db 0x00
	.db 0x00
	.db 0x00
	.db 0x00
	.db 0x00
	.db 0x00
	.db 0x00
	.db 0x00
	.db 0x00
	.db 0x00
	.db 0x00
	.db 0x00
	.db 0x00
	.db 0x00
	.db 0x00
	.db 0x00
	.db 0x00
	.db 0x00
	.db 0x00
	.db 0x00
	.db 0x00
	.db 0x00
	.db 0x00
	.db 0x00
	.db 0x00
	.db 0x00
	.db 0x00
	.db 0x00
	.db 0x00
	.db 0x00
	.db 0x00
	.db 0x00
	.db 0x00
	.db 0x00
	.db 0x00
	.db 0x00
	.db 0x00
	.db 0x00
	.db 0x00
	.db 0x00
	.db 0x00
	.db 0x00
	.db 0x00
	.db 0x00
	.db 0x00
	.db 0x00
	.db 0x00
	.db 0x00
	.db 0x00
	.db 0x00
	.db 0x00
	.db 0x00
	.db 0x00
	.db 0x00
	.db 0x00
	.db 0x00
	.db 0x00
	.db 0x00
	.db 0x00
	.db 0x00
	.db 0x00
	.db 0x00
	.db 0x00
	.db 0x00
	.db 0x00
	.db 0x00
	.db 0x00
	.db 0x00
	.db 0x00
	.db 0x00
	.db 0x00
	.db 0x00
	.db 0x00
	.db 0x00
	.db 0x00
	.db 0x00
	.db 0x00
	.db 0x00
	.db 0x00
	.db 0x00
	.db 0x00
	.db 0x00
	.db 0x00
	.db 0x00
	.db 0x00
	.db 0x00
	.db 0x00
	.db 0x00
	.db 0x00
	.db 0x00
	.db 0x00
	.db 0x00
	.db 0x00
	.db 0x00
	.db 0x00
	.db 0x00
	.db 0x00
	.db 0x00
	.db 0x00
	.db 0x00
	.db 0x00
	.db 0x00
	.db 0x00
	.db 0x00
	.db 0x00
	.db 0x00
	.db 0x00
	.db 0x00
	.db 0x00
	.db 0x00
	.db 0x00
	.db 0x00
	.db 0x00
	.db 0x00
	.db 0x00
	.db 0x00
	.db 0x00
	.db 0x00
	.db 0x00
	.db 0x00
	.db 0x00
	.db 0x00
	.db 0x00
	.db 0x00
	.db 0x00
	.db 0x00
	.db 0x00
	.db 0x00
	.db 0x00
	.db 0x00
	.db 0x00
	.db 0x00
	.db 0x00
	.db 0x00
	.db 0x00
	.db 0x00
	.db 0x00
	.db 0x00
	.db 0x00
	.db 0x00
	.db 0x00
	.db 0x00
	.db 0x00
	.db 0x00
	.db 0x00
	.db 0x00
	.db 0x00
	.db 0x00
	.db 0x00
	.db 0x00
	.db 0x00
	.db 0x00
	.db 0x00
	.db 0x00
	.db 0x00
	.db 0x00
	.db 0x00
	.db 0x00
	.db 0x00
	.db 0x00
	.db 0x00
	.db 0x00
	.db 0x00
	.db 0x00
	.db 0x00
	.db 0x00
	.db 0x00
	.db 0x00
	.db 0x00
	.db 0x00
	.db 0x00
	.db 0x00
	.db 0x00
	.db 0x00
	.db 0x00
	.db 0x00
	.db 0x00
	.db 0x00
	.db 0x00
	.db 0x00
	.db 0x00
	.db 0x00
	.db 0x00
	.db 0x00
	.db 0x00
	.db 0x00
	.db 0x00
	.db 0x00
	.db 0x00
	.db 0x00
	.db 0x00
	.db 0x00
	.db 0x00
	.db 0x00
	.db 0x00
	.db 0x00
	.db 0x00
	.db 0x00
	.db 0x00
	.db 0x00
	.db 0x00
	.db 0x00
	.db 0x00
	.db 0x00
	.db 0x00
	.db 0x00
	.db 0x00
	.db 0x00
	.db 0x00
	.db 0x00
	.db 0x00
	.db 0x00
	.db 0x00
	.db 0x00
	.db 0x00
	.db 0x00
	.db 0x00
	.db 0x00
	.db 0x00
	.db 0x00
	.db 0x00
	.db 0x00
	.db 0x00
	.db 0x00
	.db 0x00
	.db 0x00
	.db 0x00
	.db 0x00
	.db 0x00
	.db 0x00
	.db 0x00
	.db 0x00
	.db 0x00
	.db 0x00
	.db 0x00
	.db 0x00
	.db 0x00
	.db 0x00
	.db 0x00
	.db 0x00
	.db 0x00
	.db 0x00
	.db 0x00
	.db 0x00
	.db 0x00
	.db 0x00
	.db 0x00
	.db 0x00
	.db 0x00
	.db 0x00
	.db 0x00
	.db 0x00
	.db 0x00
	.db 0x00
	.db 0x00
	.db 0x00
	.db 0x00
	.db 0x00
	.db 0x00
	.db 0x00
	.db 0x00
	.db 0x00
	.db 0x00
	.db 0x00
	.db 0x00
	.db 0x00
	.db 0x00
	.db 0x00
	.db 0x00
	.db 0x00
	.db 0x00
	.db 0x00
	.db 0x00
	.db 0x00
	.db 0x00
	.db 0x00
	.db 0x00
	.db 0x00
	.db 0x00
	.db 0x00
	.db 0x00
	.db 0x00
	.db 0x00
	.db 0x00
	.db 0x00
	.db 0x00
	.db 0x00
	.db 0x00
	.db 0x00
	.db 0x00
	.db 0x00
	.db 0x00
	.db 0x00
	.db 0x00
	.db 0x00
	.db 0x00
	.db 0x00
	.db 0x00
	.db 0x00
	.db 0x00
	.db 0x00
	.db 0x00
	.db 0x00
	.db 0x00
	.db 0x00
	.db 0x00
	.db 0x00
	.db 0x00
	.db 0x00
	.db 0x00
	.db 0x00
	.db 0x00
	.db 0x00
	.db 0x00
	.db 0x00
	.db 0x00
	.db 0x00
	.db 0x00
	.db 0x00
	.db 0x00
	.db 0x00
	.db 0x00
	.db 0x00
	.db 0x00
	.db 0x00
	.db 0x00
	.db 0x00
	.db 0x00
	.db 0x00
	.db 0x00
	.db 0x00
	.db 0x00
	.db 0x00
	.db 0x00
	.db 0x00
	.db 0x00
	.db 0x00
	.db 0x00
	.db 0x00
	.db 0x00
	.db 0x00
	.db 0x00
	.db 0x00
	.db 0x00
	.db 0x00
	.db 0x00
	.db 0x00
	.db 0x00
	.db 0x00
	.db 0x00
	.db 0x00
	.db 0x00
	.db 0x00
	.db 0x00
	.db 0x00
	.db 0x00
	.db 0x00
	.db 0x00
	.db 0x00
	.db 0x00
	.db 0x00
	.db 0x00
	.db 0x00
	.db 0x00
	.db 0x00
	.db 0x00
	.db 0x00
	.db 0x00
	.db 0x00
	.db 0x00
	.db 0x00
	.db 0x00
	.db 0x00
	.db 0x00
	.db 0x00
	.db 0x00
	.db 0x00
	.db 0x00
	.db 0x00
	.db 0x00
	.db 0x00
	.db 0x00
	.db 0x00
	.db 0x00
	.db 0x00
	.db 0x00
	.db 0x00
	.db 0x00
	.db 0x00
	.db 0x00
	.db 0x00
	.db 0x00
	.db 0x00
	.db 0x00
	.db 0x00
	.db 0x00
	.db 0x00
	.db 0x00
	.db 0x00
	.db 0x00
	.db 0x00
	.db 0x00
	.db 0x00
	.db 0x00
	.db 0x00
	.db 0x00
	.db 0x00
	.db 0x00
	.db 0x00
	.db 0x00
	.db 0x00
	.db 0x00
	.db 0x00
	.db 0x00
	.db 0x00
	.db 0x00
	.db 0x00
	.db 0x00
	.db 0x00
	.db 0x00
	.db 0x00
	.db 0x00
	.db 0x00
	.db 0x00
	.db 0x00
	.db 0x00
	.db 0x00
	.db 0x00
	.db 0x00
	.db 0x00
	.db 0x00
	.db 0x00
	.db 0x00
	.db 0x00
	.db 0x00
	.db 0x00
	.db 0x00
	.db 0x00
	.db 0x00
	.db 0x00
	.db 0x00
	.db 0x00
	.db 0x00
	.db 0x00
	.db 0x00
	.db 0x00
	.db 0x00
	.db 0x00
	.db 0x00
	.db 0x00
	.db 0x00
	.db 0x00
	.db 0x00
	.db 0x00
	.db 0x00
	.db 0x00
	.db 0x00
	.db 0x00
	.db 0x00
	.db 0x00
	.db 0x00
	.db 0x00
	.db 0x00
	.db 0x00
	.db 0x00
	.db 0x00
	.db 0x00
	.db 0x00
	.db 0x00
	.db 0x00
	.db 0x00
	.db 0x00
	.db 0x00
	.db 0x00
	.db 0x00
	.db 0x00
	.db 0x00
	.db 0x00
	.db 0x00
	.db 0x00
	.db 0x00
	.db 0x00
	.db 0x00
	.db 0x00
	.db 0x00
	.db 0x00
	.db 0x00
	.db 0x00
	.db 0x00
	.db 0x00
	.db 0x00
	.db 0x00
	.db 0x00
	.db 0x00
	.db 0x00
	.db 0x00
	.db 0x00
	.db 0x00
	.db 0x00
	.db 0x00
	.db 0x00
	.db 0x00
	.db 0x00
	.db 0x00
	.db 0x00
	.db 0x00
	.db 0x00
	.db 0x00
	.db 0x00
	.db 0x00
	.db 0x00
	.db 0x00
	.db 0x00
	.db 0x00
	.db 0x00
	.db 0x00
	.db 0x00
	.db 0x00
	.db 0x00
	.db 0x00
	.db 0x00
	.db 0x00
	.db 0x00
	.db 0x00
	.db 0x00
	.db 0x00
	.db 0x00
	.db 0x00
	.db 0x00
	.db 0x00
	.db 0x00
	.db 0x00
	.db 0x00
	.db 0x00
	.db 0x00
	.db 0x00
	.db 0x00
	.db 0x00
	.db 0x00
	.db 0x00
	.db 0x00
	.db 0x00
	.db 0x00
	.db 0x00
	.db 0x00
	.db 0x00
	.db 0x00
	.db 0x00
	.db 0x00
	.db 0x00
	.db 0x00
	.db 0x00
	.db 0x00
	.db 0x00
	.db 0x00
	.db 0x00
	.db 0x00
	.db 0x00
	.db 0x00
	.db 0x00
	.db 0x00
	.db 0x00
	.db 0x00
	.db 0x00
	.db 0x00
	.db 0x00
	.db 0x00
	.db 0x00
	.db 0x00
	.db 0x00
	.db 0x00
	.db 0x00
	.db 0x00
	.db 0x00
	.db 0x00
	.db 0x00
	.db 0x00
	.db 0x00
	.db 0x00
	.db 0x00
	.db 0x00
	.db 0x00
	.db 0x00
	.db 0x00
	.db 0x00
	.db 0x00
	.db 0x00
	.db 0x00
	.db 0x00
	.db 0x00
	.db 0x00
	.db 0x00
	.db 0x00
	.db 0x00
	.db 0x00
	.db 0x00
	.db 0x00
	.db 0x00
	.db 0x00
	.db 0x00
	.db 0x00
	.db 0x00
	.db 0x00
	.db 0x00
	.db 0x00
	.db 0x00
	.db 0x00
	.db 0x00
	.db 0x00
	.db 0x00
	.db 0x00
	.db 0x00
	.db 0x00
	.db 0x00
	.db 0x00
	.db 0x00
	.db 0x00
	.db 0x00
	.db 0x00
	.db 0x00
	.db 0x00
	.db 0x00
	.db 0x00
	.db 0x00
	.db 0x00
	.db 0x00
	.db 0x00
	.db 0x00
	.db 0x00
	.db 0x00
	.db 0x00
	.db 0x00
	.db 0x00
	.db 0x00
	.db 0x00
	.db 0x00
	.db 0x00
	.db 0x00
	.db 0x00
	.db 0x00
	.db 0x00
	.db 0x00
	.db 0x00
	.db 0x00
	.db 0x00
	.db 0x00
	.db 0x00
	.db 0x00
	.db 0x00
	.db 0x00
	.db 0x00
	.db 0x00
	.db 0x00
	.db 0x00
	.db 0x00
	.db 0x00
	.db 0x00
	.db 0x00
	.db 0x00
	.db 0x00
	.db 0x00
	.db 0x00
	.db 0x00
	.db 0x00
	.db 0x00
	.db 0x00
	.db 0x00
	.db 0x00
	.db 0x00
	.db 0x00
	.db 0x00
	.db 0x00
	.db 0x00
	.db 0x00
	.db 0x00
	.db 0x00
	.db 0x00
	.db 0x00
	.db 0x00
	.db 0x00
	.db 0x00
	.db 0x00
	.db 0x00
	.db 0x00
	.db 0x00
	.db 0x00
	.db 0x00
	.db 0x00
	.db 0x00
	.db 0x00
	.db 0x00
	.db 0x00
	.db 0x00
	.db 0x00
	.db 0x00
	.db 0x00
	.db 0x00
	.db 0x00
	.db 0x00
	.db 0x00
	.db 0x00
	.db 0x00
	.db 0x00
	.db 0x00
	.db 0x00
	.db 0x00
	.db 0x00
	.db 0x00
	.db 0x00
	.db 0x00
	.db 0x00
	.db 0x00
	.db 0x00
	.db 0x00
	.db 0x00
	.db 0x00
	.db 0x00
	.db 0x00
	.db 0x00
	.db 0x00
	.db 0x00
	.db 0x00
	.db 0x00
	.db 0x00
	.db 0x00
	.db 0x00
	.db 0x00
	.db 0x00
	.db 0x00
	.db 0x00
	.db 0x00
	.db 0x00
	.db 0x00
	.db 0x00
	.db 0x00
	.db 0x00
	.db 0x00
	.db 0x00
	.db 0x00
	.db 0x00
	.db 0x00
	.db 0x00
	.db 0x00
	.db 0x00
	.db 0x00
	.db 0x00
	.db 0x00
	.db 0x00
	.db 0x00
	.db 0x00
	.db 0x00
	.db 0x00
	.db 0x00
	.db 0x00
	.db 0x00
	.db 0x00
	.db 0x00
	.db 0x00
	.db 0x00
	.db 0x00
	.db 0x00
	.db 0x00
	.db 0x00
	.db 0x00
	.db 0x00
	.db 0x00
	.db 0x00
	.db 0x00
	.db 0x00
	.db 0x00
	.db 0x00
	.db 0x00
	.db 0x00
	.db 0x00
	.db 0x00
	.db 0x00
	.db 0x00
	.db 0x00
	.db 0x00
	.db 0x00
	.db 0x00
	.db 0x00
	.db 0x00
	.db 0x00
	.db 0x00
	.db 0x00
	.db 0x00
	.db 0x00
	.db 0x00
	.db 0x00
	.db 0x00
	.db 0x00
	.db 0x00
	.db 0x00
	.db 0x00
	.db 0x00
	.db 0x00
	.db 0x00
	.db 0x00
	.db 0x00
	.db 0x00
	.db 0x00
	.db 0x00
	.db 0x00
	.db 0x00
	.db 0x00
	.db 0x00
	.db 0x00
	.db 0x00
	.db 0x00
	.db 0x00
	.db 0x00
	.db 0x00
	.db 0x00
	.db 0x00
	.db 0x00
	.db 0x00
	.db 0x00
	.db 0x00
	.db 0x00
	.db 0x00
	.db 0x00
	.db 0x00
	.db 0x00
	.db 0x00
	.db 0x00
	.db 0x00
	.db 0x00
	.db 0x00
	.db 0x00
	.db 0x00
	.db 0x00
	.db 0x00
	.db 0x00
	.db 0x00
	.db 0x00
	.db 0x00
	.db 0x00
	.db 0x00
	.db 0x00
	.db 0x00
	.db 0x00
	.db 0x00
	.db 0x00
	.db 0x00
	.db 0x00
	.db 0x00
	.db 0x00
	.db 0x00
	.db 0x00
	.db 0x00
	.db 0x00
	.db 0x00
	.db 0x00
	.db 0x00
	.db 0x00
	.db 0x00
	.db 0x00
	.db 0x00
	.db 0x00
	.db 0x00
	.db 0x00
	.db 0x00
	.db 0x00
	.db 0x00
	.db 0x00
	.db 0x00
	.db 0x00
	.db 0x00
	.db 0x00
	.db 0x00
	.db 0x00
	.db 0x00
	.db 0x00
	.db 0x00
	.db 0x00
	.db 0x00
	.db 0x00
	.db 0x00
	.db 0x00
	.db 0x00
	.db 0x00
	.db 0x00
	.db 0x00
	.db 0x00
	.db 0x00
	.db 0x00
	.db 0x00
	.db 0x00
	.db 0x00
	.db 0x00
	.db 0x00
	.db 0x00
	.db 0x00
	.db 0x00
	.db 0x00
	.db 0x00
	.db 0x00
	.db 0x00
	.db 0x00
	.db 0x00
	.db 0x00
	.db 0x00
	.db 0x00
	.db 0x00
	.db 0x00
	.db 0x00
	.db 0x00
	.db 0x00
	.db 0x00
	.db 0x00
	.db 0x00
	.db 0x00
	.db 0x00
	.db 0x00
	.db 0x00
	.db 0x00
	.db 0x00
	.db 0x00
	.db 0x00
	.db 0x00
	.db 0x00
	.db 0x00
	.db 0x00
	.db 0x00
	.db 0x00
	.db 0x00
	.db 0x00
	.db 0x00
	.db 0x00
	.db 0x00
	.db 0x00
	.db 0x00
	.db 0x00
	.db 0x00
	.db 0x00
	.db 0x00
	.db 0x00
	.db 0x00
	.db 0x00
	.db 0x00
	.db 0x00
	.db 0x00
	.db 0x00
	.db 0x00
	.db 0x00
	.db 0x00
	.db 0x00
	.db 0x00
	.db 0x00
	.db 0x00
	.db 0x00
	.db 0x00
	.db 0x00
	.db 0x00
	.db 0x00
	.db 0x00
	.db 0x00
	.db 0x00
	.db 0x00
	.db 0x00
	.db 0x00
	.db 0x00
	.db 0x00
	.db 0x00
	.db 0x00
	.db 0x00
	.db 0x00
	.db 0x00
	.db 0x00
	.db 0x00
	.db 0x00
	.db 0x00
	.db 0x00
	.db 0x00
	.db 0x00
	.db 0x00
	.db 0x00
	.db 0x00
	.db 0x00
	.db 0x00
	.db 0x00
	.db 0x00
	.db 0x00
	.db 0x00
	.db 0x00
	.db 0x00
	.db 0x00
	.db 0x00
	.db 0x00
	.db 0x00
	.db 0x00
	.db 0x00
	.db 0x00
	.db 0x00
	.db 0x00
	.db 0x00
	.db 0x00
	.db 0x00
	.db 0x00
	.db 0x00
	.db 0x00
	.db 0x00
	.db 0x00
	.db 0x00
	.db 0x00
	.db 0x00
	.db 0x00
	.db 0x00
	.db 0x00
	.db 0x00
	.db 0x00
	.db 0x00
	.db 0x00
	.db 0x00
	.db 0x00
	.db 0x00
	.db 0x00
	.db 0x00
	.db 0x00
	.db 0x00
	.db 0x00
	.db 0x00
	.db 0x00
	.db 0x00
	.db 0x00
	.db 0x00
	.db 0x00
	.db 0x00
	.db 0x00
	.db 0x00
	.db 0x00
	.db 0x00
	.db 0x00
	.db 0x00
	.db 0x00
	.db 0x00
	.db 0x00
	.db 0x00
	.db 0x00
	.db 0x00
	.db 0x00
	.db 0x00
	.db 0x00
	.db 0x00
	.db 0x00
	.db 0x00
	.db 0x00
	.db 0x00
	.db 0x00
	.db 0x00
	.db 0x00
	.db 0x00
	.db 0x00
	.db 0x00
	.db 0x00
	.db 0x00
	.db 0x00
	.db 0x00
	.db 0x00
	.db 0x00
	.db 0x00
	.db 0x00
	.db 0x00
	.db 0x00
	.db 0x00
	.db 0x00
	.db 0x00
	.db 0x00
	.db 0x00
	.db 0x00
	.db 0x00
	.db 0x00
	.db 0x00
	.db 0x00
	.db 0x00
	.db 0x00
	.db 0x00
	.db 0x00
	.db 0x00
	.db 0x00
	.db 0x00
	.db 0x00
	.db 0x00
	.db 0x00
	.db 0x00
	.db 0x00
	.db 0x00
	.db 0x00
	.db 0x00
	.db 0x00
	.db 0x00
	.db 0x00
	.db 0x00
	.db 0x00
	.db 0x00
	.db 0x00
	.db 0x00
	.db 0x00
	.db 0x00
	.db 0x00
	.db 0x00
	.db 0x00
	.db 0x00
	.db 0x00
	.db 0x00
	.db 0x00
	.db 0x00
	.db 0x00
	.db 0x00
	.db 0x00
	.db 0x00
	.db 0x00
	.db 0x00
	.db 0x00
	.db 0x00
	.db 0x00
	.db 0x00
	.db 0x00
	.db 0x00
	.db 0x00
	.db 0x00
	.db 0x00
	.db 0x00
	.db 0x00
	.db 0x00
	.db 0x00
	.db 0x00
	.db 0x00
	.db 0x00
	.db 0x00
	.db 0x00
	.db 0x00
	.db 0x00
	.db 0x00
	.db 0x00
	.db 0x00
	.db 0x00
	.db 0x00
	.db 0x00
	.db 0x00
	.db 0x00
	.db 0x00
	.db 0x00
	.db 0x00
	.db 0x00
	.db 0x00
	.db 0x00
	.db 0x00
	.db 0x00
	.db 0x00
	.db 0x00
	.db 0x00
	.db 0x00
	.db 0x00
	.db 0x00
	.db 0x00
	.db 0x00
	.db 0x00
	.db 0x00
	.db 0x00
	.db 0x00
	.db 0x00
	.db 0x00
	.db 0x00
	.db 0x00
	.db 0x00
	.db 0x00
	.db 0x00
	.db 0x00
	.db 0x00
	.db 0x00
	.db 0x00
	.db 0x00
	.db 0x00
	.db 0x00
	.db 0x00
	.db 0x00
	.db 0x00
	.db 0x00
	.db 0x00
	.db 0x00
	.db 0x00
	.db 0x00
	.db 0x00
	.db 0x00
	.db 0x00
	.db 0x00
	.db 0x00
	.db 0x00
	.db 0x00
	.db 0x00
	.db 0x00
	.db 0x00
	.db 0x00
	.db 0x00
	.db 0x00
	.db 0x00
	.db 0x00
	.db 0x00
	.db 0x00
	.db 0x00
	.db 0x00
	.db 0x00
	.db 0x00
	.db 0x00
	.db 0x00
	.db 0x00
	.db 0x00
	.db 0x00
	.db 0x00
	.db 0x00
	.db 0x00
	.db 0x00
	.db 0x00
	.db 0x00
	.db 0x00
	.db 0x00
	.db 0x00
	.db 0x00
	.db 0x00
	.db 0x00
	.db 0x00
	.db 0x00
	.db 0x00
	.db 0x00
	.db 0x00
	.db 0x00
	.db 0x00
	.db 0x00
	.db 0x00
	.db 0x00
	.db 0x00
	.db 0x00
	.db 0x00
	.db 0x00
	.db 0x00
	.db 0x00
	.db 0x00
	.db 0x00
	.db 0x00
	.db 0x00
	.db 0x00
	.db 0x00
	.db 0x00
	.db 0x00
	.db 0x00
	.db 0x00
	.db 0x00
	.db 0x00
	.db 0x00
	.db 0x00
	.db 0x00
	.db 0x00
	.db 0x00
	.db 0x00
	.db 0x00
	.db 0x00
	.db 0x00
	.db 0x00
	.db 0x00
	.db 0x00
	.db 0x00
	.db 0x00
	.db 0x00
	.db 0x00
	.db 0x00
	.db 0x00
	.db 0x00
	.db 0x00
	.db 0x00
	.db 0x00
	.db 0x00
	.db 0x00
	.db 0x00
	.db 0x00
	.db 0x00
	.db 0x00
	.db 0x00
	.db 0x00
	.db 0x00
	.db 0x00
	.db 0x00
	.db 0x00
	.db 0x00
	.db 0x00
	.db 0x00
	.db 0x00
	.db 0x00
	.db 0x00
	.db 0x00
	.db 0x00
	.db 0x00
	.db 0x00
	.db 0x00
	.db 0x00
	.db 0x00
	.db 0x00
	.db 0x00
	.db 0x00
	.db 0x00
	.db 0x00
	.db 0x00
	.db 0x00
	.db 0x00
	.db 0x00
	.db 0x00
	.db 0x00
	.db 0x00
	.db 0x00
	.db 0x00
	.db 0x00
	.db 0x00
	.db 0x00
	.db 0x00
	.db 0x00
	.db 0x00
	.db 0x00
	.db 0x00
	.db 0x00
	.db 0x00
	.db 0x00
	.db 0x00
	.db 0x00
	.db 0x00
	.db 0x00
	.db 0x00
	.db 0x00
	.db 0x00
	.db 0x00
	.db 0x00
	.db 0x00
	.db 0x00
	.db 0x00
	.db 0x00
	.db 0x00
	.db 0x00
	.db 0x00
	.db 0x00
	.db 0x00
	.db 0x00
	.db 0x00
	.db 0x00
	.db 0x00
	.db 0x00
	.db 0x00
	.db 0x00
	.db 0x00
	.db 0x00
	.db 0x00
	.db 0x00
	.db 0x00
	.db 0x00
	.db 0x00
	.db 0x00
	.db 0x00
	.db 0x00
	.db 0x00
	.db 0x00
	.db 0x00
	.db 0x00
	.db 0x00
	.db 0x00
	.db 0x00
	.db 0x00
	.db 0x00
	.db 0x00
	.db 0x00
	.db 0x00
	.db 0x00
	.db 0x00
	.db 0x00
	.db 0x00
	.db 0x00
	.db 0x00
	.db 0x00
	.db 0x00
	.db 0x00
	.db 0x00
	.db 0x00
	.db 0x00
	.db 0x00
	.db 0x00
	.db 0x00
	.db 0x00
	.db 0x00
	.db 0x00
	.db 0x00
	.db 0x00
	.db 0x00
	.db 0x00
	.db 0x00
	.db 0x00
	.db 0x00
	.db 0x00
	.db 0x00
	.db 0x00
	.db 0x00
	.db 0x00
	.db 0x00
	.db 0x00
	.db 0x00
	.db 0x00
	.db 0x00
	.db 0x00
	.db 0x00
	.db 0x00
	.db 0x00
	.db 0x00
	.db 0x00
	.db 0x00
	.db 0x00
	.db 0x00
	.db 0x00
	.db 0x00
	.db 0x00
	.db 0x00
	.db 0x00
	.db 0x00
	.db 0x00
	.db 0x00
	.db 0x00
	.db 0x00
	.db 0x00
	.db 0x00
	.db 0x00
	.db 0x00
	.db 0x00
	.db 0x00
	.db 0x00
	.db 0x00
	.db 0x00
	.db 0x00
	.db 0x00
	.db 0x00
	.db 0x00
	.db 0x00
	.db 0x00
	.db 0x00
	.db 0x00
	.db 0x00
	.db 0x00
	.db 0x00
	.db 0x00
	.db 0x00
	.db 0x00
	.db 0x00
	.db 0x00
	.db 0x00
	.db 0x00
	.db 0x00
	.db 0x00
	.db 0x00
	.db 0x00
	.db 0x00
	.db 0x00
	.db 0x00
	.db 0x00
	.db 0x00
	.db 0x00
	.db 0x00
	.db 0x00
	.db 0x00
	.db 0x00
	.db 0x00
	.db 0x00
	.db 0x00
	.db 0x00
	.db 0x00
	.db 0x00
	.db 0x00
	.db 0x00
	.db 0x00
	.db 0x00
	.db 0x00
	.db 0x00
	.db 0x00
	.db 0x00
	.db 0x00
	.db 0x00
	.db 0x00
	.db 0x00
	.db 0x00
	.db 0x00
	.db 0x00
	.db 0x00
	.db 0x00
	.db 0x00
	.db 0x00
	.db 0x00
	.db 0x00
	.db 0x00
	.db 0x00
	.db 0x00
	.db 0x00
	.db 0x00
	.db 0x00
	.db 0x00
	.db 0x00
	.db 0x00
	.db 0x00
	.db 0x00
	.db 0x00
	.db 0x00
	.db 0x00
	.db 0x00
	.db 0x00
	.db 0x00
	.db 0x00
	.db 0x00
	.db 0x00
	.db 0x00
	.db 0x00
	.db 0x00
	.db 0x00
	.db 0x00
	.db 0x00
	.db 0x00
	.db 0x00
	.db 0x00
	.db 0x00
	.db 0x00
	.db 0x00
	.db 0x00
	.db 0x00
	.db 0x00
	.db 0x00
	.db 0x00
	.db 0x00
	.db 0x00
	.db 0x00
	.db 0x00
	.db 0x00
	.db 0x00
	.db 0x00
	.db 0x00
	.db 0x00
	.db 0x00
	.db 0x00
	.db 0x00
	.db 0x00
	.db 0x00
	.db 0x00
	.db 0x00
	.db 0x00
	.db 0x00
	.db 0x00
	.db 0x00
	.db 0x00
	.db 0x00
	.db 0x00
	.db 0x00
	.db 0x00
	.db 0x00
	.db 0x00
	.db 0x00
	.db 0x00
	.db 0x00
	.db 0x00
	.db 0x00
	.db 0x00
	.db 0x00
	.db 0x00
	.db 0x00
	.db 0x00
	.db 0x00
	.db 0x00
	.db 0x00
	.db 0x00
	.db 0x00
	.db 0x00
	.db 0x00
	.db 0x00
	.db 0x00
	.db 0x00
	.db 0x00
	.db 0x00
	.db 0x00
	.db 0x00
	.db 0x00
	.db 0x00
	.db 0x00
	.db 0x00
	.db 0x00
	.db 0x00
	.db 0x00
	.db 0x00
	.db 0x00
	.db 0x00
	.db 0x00
	.db 0x00
	.db 0x00
	.db 0x00
	.db 0x00
	.db 0x00
	.db 0x00
	.db 0x00
	.db 0x00
	.db 0x00
	.db 0x00
	.db 0x00
	.db 0x00
	.db 0x00
	.db 0x00
	.db 0x00
	.db 0x00
	.db 0x00
	.db 0x00
	.db 0x00
	.db 0x00
	.db 0x00
	.db 0x00
	.db 0x00
	.db 0x00
	.db 0x00
	.db 0x00
	.db 0x00
	.db 0x00
	.db 0x00
	.db 0x00
	.db 0x00
	.db 0x00
	.db 0x00
	.db 0x00
	.db 0x00
	.db 0x00
	.db 0x00
	.db 0x00
	.db 0x00
	.db 0x00
	.db 0x00
	.db 0x00
	.db 0x00
	.db 0x00
	.db 0x00
	.db 0x00
	.db 0x00
	.db 0x00
	.db 0x00
	.db 0x00
	.db 0x00
	.db 0x00
	.db 0x00
	.db 0x00
	.db 0x00
	.db 0x00
	.db 0x00
	.db 0x00
	.db 0x00
	.db 0x00
	.db 0x00
	.db 0x00
	.db 0x00
	.db 0x00
	.db 0x00
	.db 0x00
	.db 0x00
	.db 0x00
	.db 0x00
	.db 0x00
	.db 0x00
	.db 0x00
	.db 0x00
	.db 0x00
	.db 0x00
	.db 0x00
	.db 0x00
	.db 0x00
	.db 0x00
	.db 0x00
	.db 0x00
	.db 0x00
	.db 0x00
	.db 0x00
	.db 0x00
	.db 0x00
	.db 0x00
	.db 0x00
	.db 0x00
	.db 0x00
	.db 0x00
	.db 0x00
	.db 0x00
	.db 0x00
	.db 0x00
	.db 0x00
	.db 0x00
	.db 0x00
	.db 0x00
	.db 0x00
	.db 0x00
	.db 0x00
	.db 0x00
	.db 0x00
	.db 0x00
	.db 0x00
	.db 0x00
	.db 0x00
	.db 0x00
	.db 0x00
	.db 0x00
	.db 0x00
	.db 0x00
	.db 0x00
	.db 0x00
	.db 0x00
	.db 0x00
	.db 0x00
	.db 0x00
	.db 0x00
	.db 0x00
	.db 0x00
	.db 0x00
	.db 0x00
	.db 0x00
	.db 0x00
	.db 0x00
	.db 0x00
	.db 0x00
	.db 0x00
	.db 0x00
	.db 0x00
	.db 0x00
	.db 0x00
	.db 0x00
	.db 0x00
	.db 0x00
	.db 0x00
	.db 0x00
	.db 0x00
	.db 0x00
	.db 0x00
	.db 0x00
	.db 0x00
	.db 0x00
	.db 0x00
	.db 0x00
	.db 0x00
	.db 0x00
	.db 0x00
	.db 0x00
	.db 0x00
	.db 0x00
	.db 0x00
	.db 0x00
	.db 0x00
	.db 0x00
	.db 0x00
	.db 0x00
	.db 0x00
	.db 0x00
	.db 0x00
	.db 0x00
	.db 0x00
	.db 0x00
	.db 0x00
	.db 0x00
	.db 0x00
	.db 0x00
	.db 0x00
	.db 0x00
	.db 0x00
	.db 0x00
	.db 0x00
	.db 0x00
	.db 0x00
	.db 0x00
	.db 0x00
	.db 0x00
	.db 0x00
	.db 0x00
	.db 0x00
	.db 0x00
	.db 0x00
	.db 0x00
	.db 0x00
	.db 0x00
	.db 0x00
	.db 0x00
	.db 0x00
	.db 0x00
	.db 0x00
	.db 0x00
	.db 0x00
	.db 0x00
	.db 0x00
	.db 0x00
	.db 0x00
	.db 0x00
	.db 0x00
	.db 0x00
	.db 0x00
	.db 0x00
	.db 0x00
	.db 0x00
	.db 0x00
	.db 0x00
	.db 0x00
	.db 0x00
	.db 0x00
	.db 0x00
	.db 0x00
	.db 0x00
	.db 0x00
	.db 0x00
	.db 0x00
	.db 0x00
	.db 0x00
	.db 0x00
	.db 0x00
	.db 0x00
	.db 0x00
	.db 0x00
	.db 0x00
	.db 0x00
	.db 0x00
	.db 0x00
	.db 0x00
	.db 0x00
	.db 0x00
	.db 0x00
	.db 0x00
	.db 0x00
	.db 0x00
	.db 0x00
	.db 0x00
	.db 0x00
	.db 0x00
	.db 0x00
	.db 0x00
	.db 0x00
	.db 0x00
	.db 0x00
	.db 0x00
	.db 0x00
	.db 0x00
	.db 0x00
	.db 0x00
	.db 0x00
	.db 0x00
	.db 0x00
	.db 0x00
	.db 0x00
	.db 0x00
	.db 0x00
	.db 0x00
	.db 0x00
	.db 0x00
	.db 0x00
	.db 0x00
	.db 0x00
	.db 0x00
	.db 0x00
	.db 0x00
	.db 0x00
	.db 0x00
	.db 0x00
	.db 0x00
	.db 0x00
	.db 0x00
	.db 0x00
	.db 0x00
	.db 0x00
	.db 0x00
	.db 0x00
	.db 0x00
	.db 0x00
	.db 0x00
	.db 0x00
	.db 0x00
	.db 0x00
	.db 0x00
	.db 0x00
	.db 0x00
	.db 0x00
	.db 0x00
	.db 0x00
	.db 0x00
	.db 0x00
	.db 0x00
	.db 0x00
	.db 0x00
	.db 0x00
	.db 0x00
	.db 0x00
	.db 0x00
	.db 0x00
	.db 0x00
	.db 0x00
	.db 0x00
	.db 0x00
	.db 0x00
	.db 0x00
	.db 0x00
	.db 0x00
	.db 0x00
	.db 0x00
	.db 0x00
	.db 0x00
	.db 0x00
	.db 0x00
	.db 0x00
	.db 0x00
	.db 0x00
	.db 0x00
	.db 0x00
	.db 0x00
	.db 0x00
	.db 0x00
	.db 0x00
	.db 0x00
	.db 0x00
	.db 0x00
	.db 0x00
	.db 0x00
	.db 0x00
	.db 0x00
	.db 0x00
	.db 0x00
	.db 0x00
	.db 0x00
	.db 0x00
	.db 0x00
	.db 0x00
	.db 0x00
	.db 0x00
	.db 0x00
	.db 0x00
	.db 0x00
	.db 0x00
	.db 0x00
	.db 0x00
	.db 0x00
	.db 0x00
	.db 0x00
	.db 0x00
	.db 0x00
	.db 0x00
	.db 0x00
	.db 0x00
	.db 0x00
	.db 0x00
	.db 0x00
	.db 0x00
	.db 0x00
	.db 0x00
	.db 0x00
	.db 0x00
	.db 0x00
	.db 0x00
	.db 0x00
	.db 0x00
	.db 0x00
	.db 0x00
	.db 0x00
	.db 0x00
	.db 0x00
	.db 0x00
	.db 0x00
	.db 0x00
	.db 0x00
	.db 0x00
	.db 0x00
	.db 0x00
	.db 0x00
	.db 0x00
	.db 0x00
	.db 0x00
	.db 0x00
	.db 0x00
	.db 0x00
	.db 0x00
	.db 0x00
	.db 0x00
	.db 0x00
	.db 0x00
	.db 0x00
	.db 0x00
	.db 0x00
	.db 0x00
	.db 0x00
	.db 0x00
	.db 0x00
	.db 0x00
	.db 0x00
	.db 0x00
	.db 0x00
	.db 0x00
	.db 0x00
	.db 0x00
	.db 0x00
	.db 0x00
	.db 0x00
	.db 0x00
	.db 0x00
	.db 0x00
	.db 0x00
	.db 0x00
	.db 0x00
	.db 0x00
	.db 0x00
	.db 0x00
	.db 0x00
	.db 0x00
	.db 0x00
	.db 0x00
	.db 0x00
	.db 0x00
	.db 0x00
	.db 0x00
	.db 0x00
	.db 0x00
	.db 0x00
	.db 0x00
	.db 0x00
	.db 0x00
	.db 0x00
	.db 0x00
	.db 0x00
	.db 0x00
	.db 0x00
	.db 0x00
	.db 0x00
	.db 0x00
	.db 0x00
	.db 0x00
	.db 0x00
	.db 0x00
	.db 0x00
	.db 0x00
	.db 0x00
	.db 0x00
	.db 0x00
	.db 0x00
	.db 0x00
	.db 0x00
	.db 0x00
	.db 0x00
	.db 0x00
	.db 0x00
	.db 0x00
	.db 0x00
	.db 0x00
	.db 0x00
	.db 0x00
	.db 0x00
	.db 0x00
	.db 0x00
	.db 0x00
	.db 0x00
	.db 0x00
	.db 0x00
	.db 0x00
	.db 0x00
	.db 0x00
	.db 0x00
	.db 0x00
	.db 0x00
	.db 0x00
	.db 0x00
	.db 0x00
	.db 0x00
	.db 0x00
	.db 0x00
	.db 0x00
	.db 0x00
	.db 0x00
	.db 0x00
	.db 0x00
	.db 0x00
	.db 0x00
	.db 0x00
	.db 0x00
	.db 0x00
	.db 0x00
	.db 0x00
	.db 0x00
	.db 0x00
	.db 0x00
	.db 0x00
	.db 0x00
	.db 0x00
	.db 0x00
	.db 0x00
	.db 0x00
	.db 0x00
	.db 0x00
	.db 0x00
	.db 0x00
	.db 0x00
	.db 0x00
	.db 0x00
	.db 0x00
	.db 0x00
	.db 0x00
	.db 0x00
	.db 0x00
	.db 0x00
	.db 0x00
	.db 0x00
	.db 0x00
	.db 0x00
	.db 0x00
	.db 0x00
	.db 0x00
	.db 0x00
	.db 0x00
	.db 0x00
	.db 0x00
	.db 0x00
	.db 0x00
	.db 0x00
	.db 0x00
	.db 0x00
	.db 0x00
	.db 0x00
	.db 0x00
	.db 0x00
	.db 0x00
	.db 0x00
	.db 0x00
	.db 0x00
	.db 0x00
	.db 0x00
	.db 0x00
	.db 0x00
	.db 0x00
	.db 0x00
	.db 0x00
	.db 0x00
	.db 0x00
	.db 0x00
	.db 0x00
	.db 0x00
	.db 0x00
	.db 0x00
	.db 0x00
	.db 0x00
	.db 0x00
	.db 0x00
	.db 0x00
	.db 0x00
	.db 0x00
	.db 0x00
	.db 0x00
	.db 0x00
	.db 0x00
	.db 0x00
	.db 0x00
	.db 0x00
	.db 0x00
	.db 0x00
	.db 0x00
	.db 0x00
	.db 0x00
	.db 0x00
	.db 0x00
	.db 0x00
	.db 0x00
	.db 0x00
	.db 0x00
	.db 0x00
	.db 0x00
	.db 0x00
	.db 0x00
	.db 0x00
	.db 0x00
	.db 0x00
	.db 0x00
	.db 0x00
	.db 0x00
	.db 0x00
	.db 0x00
	.db 0x00
	.db 0x00
	.db 0x00
	.db 0x00
	.db 0x00
	.db 0x00
	.db 0x00
	.db 0x00
	.db 0x00
	.db 0x00
	.db 0x00
	.db 0x00
	.db 0x00
	.db 0x00
	.db 0x00
	.db 0x00
	.db 0x00
	.db 0x00
	.db 0x00
	.db 0x00
	.db 0x00
	.db 0x00
	.db 0x00
	.db 0x00
	.db 0x00
	.db 0x00
	.db 0x00
	.db 0x00
	.db 0x00
	.db 0x00
	.db 0x00
	.db 0x00
	.db 0x00
	.db 0x00
	.db 0x00
	.db 0x00
	.db 0x00
	.db 0x00
	.db 0x00
	.db 0x00
	.db 0x00
	.db 0x00
	.db 0x00
	.db 0x00
	.db 0x00
	.db 0x00
	.db 0x00
	.db 0x00
	.db 0x00
	.db 0x00
	.db 0x00
	.db 0x00
	.db 0x00
	.db 0x00
	.db 0x00
	.db 0x00
	.db 0x00
	.db 0x00
	.db 0x00
	.db 0x00
	.db 0x00
	.db 0x00
	.db 0x00
	.db 0x00
	.db 0x00
	.db 0x00
	.db 0x00
	.db 0x00
	.db 0x00
	.db 0x00
	.db 0x00
	.db 0x00
	.db 0x00
	.db 0x00
	.db 0x00
	.db 0x00
	.db 0x00
	.db 0x00
	.db 0x00
	.db 0x00
	.db 0x00
	.db 0x00
	.db 0x00
	.db 0x00
	.db 0x00
	.db 0x00
	.db 0x00
	.db 0x00
	.db 0x00
	.db 0x00
	.db 0x00
	.db 0x00
	.db 0x00
	.db 0x00
	.db 0x00
	.db 0x00
	.db 0x00
	.db 0x00
	.db 0x00
	.db 0x00
	.db 0x00
	.db 0x00
	.db 0x00
	.db 0x00
	.db 0x00
	.db 0x00
	.db 0x00
	.db 0x00
	.db 0x00
	.db 0x00
	.db 0x00
	.db 0x00
	.db 0x00
	.db 0x00
	.db 0x00
	.db 0x00
	.db 0x00
	.db 0x00
	.db 0x00
	.db 0x00
	.db 0x00
	.db 0x00
	.db 0x00
	.db 0x00
	.db 0x00
	.db 0x00
	.db 0x00
	.db 0x00
	.db 0x00
	.db 0x00
	.db 0x00
	.db 0x00
	.db 0x00
	.db 0x00
	.db 0x00
	.db 0x00
	.db 0x00
	.db 0x00
	.db 0x00
	.db 0x00
	.db 0x00
	.db 0x00
	.db 0x00
	.db 0x00
	.db 0x00
	.db 0x00
	.db 0x00
	.db 0x00
	.db 0x00
	.db 0x00
	.db 0x00
	.db 0x00
	.db 0x00
	.db 0x00
	.db 0x00
	.db 0x00
	.db 0x00
	.db 0x00
	.db 0x00
	.db 0x00
	.db 0x00
	.db 0x00
	.db 0x00
	.db 0x00
	.db 0x00
	.db 0x00
	.db 0x00
	.db 0x00
	.db 0x00
	.db 0x00
	.db 0x00
	.db 0x00
	.db 0x00
	.db 0x00
	.db 0x00
	.db 0x00
	.db 0x00
	.db 0x00
	.db 0x00
	.db 0x00
	.db 0x00
	.db 0x00
	.db 0x00
	.db 0x00
	.db 0x00
	.db 0x00
	.db 0x00
	.db 0x00
	.db 0x00
	.db 0x00
	.db 0x00
	.db 0x00
	.db 0x00
	.db 0x00
	.db 0x00
	.db 0x00
	.db 0x00
	.db 0x00
	.db 0x00
	.db 0x00
	.db 0x00
	.db 0x00
	.db 0x00
	.db 0x00
	.db 0x00
	.db 0x00
	.db 0x00
	.db 0x00
	.db 0x00
	.db 0x00
	.db 0x00
	.db 0x00
	.db 0x00
	.db 0x00
	.db 0x00
	.db 0x00
	.db 0x00
	.db 0x00
	.db 0x00
	.db 0x00
	.db 0x00
	.db 0x00
	.db 0x00
	.db 0x00
	.db 0x00
	.db 0x00
	.db 0x00
	.db 0x00
	.db 0x00
	.db 0x00
	.db 0x00
	.db 0x00
	.db 0x00
	.db 0x00
	.db 0x00
	.db 0x00
	.db 0x00
	.db 0x00
	.db 0x00
	.db 0x00
	.db 0x00
	.db 0x00
	.db 0x00
	.db 0x00
	.db 0x00
	.db 0x00
	.db 0x00
	.db 0x00
	.db 0x00
	.db 0x00
	.db 0x00
	.db 0x00
	.db 0x00
	.db 0x00
	.db 0x00
	.db 0x00
	.db 0x00
	.db 0x00
	.db 0x00
	.db 0x00
	.db 0x00
	.db 0x00
	.db 0x00
	.db 0x00
	.db 0x00
	.db 0x00
	.db 0x00
	.db 0x00
	.db 0x00
	.db 0x00
	.db 0x00
	.db 0x00
	.db 0x00
	.db 0x00
	.db 0x00
	.db 0x00
	.db 0x00
	.db 0x00
	.db 0x00
	.db 0x00
	.db 0x00
	.db 0x00
	.db 0x00
	.db 0x00
	.db 0x00
	.db 0x00
	.db 0x00
	.db 0x00
	.db 0x00
	.db 0x00
	.db 0x00
	.db 0x00
	.db 0x00
	.db 0x00
	.db 0x00
	.db 0x00
	.db 0x00
	.db 0x00
	.db 0x00
	.db 0x00
	.db 0x00
	.db 0x00
	.db 0x00
	.db 0x00
	.db 0x00
	.db 0x00
	.db 0x00
	.db 0x00
	.db 0x00
	.db 0x00
	.db 0x00
	.db 0x00
	.db 0x00
	.db 0x00
	.db 0x00
	.db 0x00
	.db 0x00
	.db 0x00
	.db 0x00
	.db 0x00
	.db 0x00
	.db 0x00
	.db 0x00
	.db 0x00
	.db 0x00
	.db 0x00
	.db 0x00
	.db 0x00
	.db 0x00
	.db 0x00
	.db 0x00
	.db 0x00
	.db 0x00
	.db 0x00
	.db 0x00
	.db 0x00
	.db 0x00
	.db 0x00
	.db 0x00
	.db 0x00
	.db 0x00
	.db 0x00
	.db 0x00
	.db 0x00
	.db 0x00
	.db 0x00
	.db 0x00
	.db 0x00
	.db 0x00
	.db 0x00
	.db 0x00
	.db 0x00
	.db 0x00
	.db 0x00
	.db 0x00
	.db 0x00
	.db 0x00
	.db 0x00
	.db 0x00
	.db 0x00
	.db 0x00
	.db 0x00
	.db 0x00
	.db 0x00
	.db 0x00
	.db 0x00
	.db 0x00
	.db 0x00
	.db 0x00
	.db 0x00
	.db 0x00
	.db 0x00
	.db 0x00
	.db 0x00
	.db 0x00
	.db 0x00
	.db 0x00
	.db 0x00
	.db 0x00
	.db 0x00
	.db 0x00
	.db 0x00
	.db 0x00
	.db 0x00
	.db 0x00
	.db 0x00
	.db 0x00
	.db 0x00
	.db 0x00
	.db 0x00
	.db 0x00
	.db 0x00
	.db 0x00
	.db 0x00
	.db 0x00
	.db 0x00
	.db 0x00
	.db 0x00
	.db 0x00
	.db 0x00
	.db 0x00
	.db 0x00
	.db 0x00
	.db 0x00
	.db 0x00
	.db 0x00
	.db 0x00
	.db 0x00
	.db 0x00
	.db 0x00
	.db 0x00
	.db 0x00
	.db 0x00
	.db 0x00
	.db 0x00
	.db 0x00
	.db 0x00
	.db 0x00
	.db 0x00
	.db 0x00
	.db 0x00
	.db 0x00
	.db 0x00
	.db 0x00
	.db 0x00
	.db 0x00
	.db 0x00
	.db 0x00
	.db 0x00
	.db 0x00
	.db 0x00
	.db 0x00
	.db 0x00
	.db 0x00
	.db 0x00
	.db 0x00
	.db 0x00
	.db 0x00
	.db 0x00
	.db 0x00
	.db 0x00
	.db 0x00
	.db 0x00
	.db 0x00
	.db 0x00
	.db 0x00
	.db 0x00
	.db 0x00
	.db 0x00
	.db 0x00
	.db 0x00
	.db 0x00
	.db 0x00
	.db 0x00
	.db 0x00
	.db 0x00
	.db 0x00
	.db 0x00
	.db 0x00
	.db 0x00
	.db 0x00
	.db 0x00
	.db 0x00
	.db 0x00
	.db 0x00
	.db 0x00
	.db 0x00
	.db 0x00
	.db 0x00
	.db 0x00
	.db 0x00
	.db 0x00
	.db 0x00
	.db 0x00
	.db 0x00
	.db 0x00
	.db 0x00
	.db 0x00
	.db 0x00
	.db 0x00
	.db 0x00
	.db 0x00
	.db 0x00
	.db 0x00
	.db 0x00
	.db 0x00
	.db 0x00
	.db 0x00
	.db 0x00
	.db 0x00
	.db 0x00
	.db 0x00
	.db 0x00
	.db 0x00
	.db 0x00
	.db 0x00
	.db 0x00
	.db 0x00
	.db 0x00
	.db 0x00
	.db 0x00
	.db 0x00
	.db 0x00
	.db 0x00
	.db 0x00
	.db 0x00
	.db 0x00
	.db 0x00
	.db 0x00
	.db 0x00
	.db 0x00
	.db 0x00
	.db 0x00
	.db 0x00
	.db 0x00
	.db 0x00
	.db 0x00
	.db 0x00
	.db 0x00
	.db 0x00
	.db 0x00
	.db 0x00
	.db 0x00
	.db 0x00
	.db 0x00
	.db 0x00
	.db 0x00
	.db 0x00
	.db 0x00
	.db 0x00
	.db 0x00
	.db 0x00
	.db 0x00
	.db 0x00
	.db 0x00
	.db 0x00
	.db 0x00
	.db 0x00
	.db 0x00
	.db 0x00
	.db 0x00
	.db 0x00
	.db 0x00
	.db 0x00
	.db 0x00
	.db 0x00
	.db 0x00
	.db 0x00
	.db 0x00
	.db 0x00
	.db 0x00
	.db 0x00
	.db 0x00
	.db 0x00
	.db 0x00
	.db 0x00
	.db 0x00
	.db 0x00
	.db 0x00
	.db 0x00
	.db 0x00
	.db 0x00
	.db 0x00
	.db 0x00
	.db 0x00
	.db 0x00
	.db 0x00
	.db 0x00
	.db 0x00
	.db 0x00
	.db 0x00
	.db 0x00
	.db 0x00
	.db 0x00
	.db 0x00
	.db 0x00
	.db 0x00
	.db 0x00
	.db 0x00
	.db 0x00
	.db 0x00
	.db 0x00
	.db 0x00
	.db 0x00
	.db 0x00
	.db 0x00
	.db 0x00
	.db 0x00
	.db 0x00
	.db 0x00
	.db 0x00
	.db 0x00
	.db 0x00
	.db 0x00
	.db 0x00
	.db 0x00
	.db 0x00
	.db 0x00
	.db 0x00
	.db 0x00
	.db 0x00
	.db 0x00
	.db 0x00
	.db 0x00
	.db 0x00
	.db 0x00
	.db 0x00
	.db 0x00
	.db 0x00
	.db 0x00
	.db 0x00
	.db 0x00
	.db 0x00
	.db 0x00
	.db 0x00
	.db 0x00
	.db 0x00
	.db 0x00
	.db 0x00
	.db 0x00
	.db 0x00
	.db 0x00
	.db 0x00
	.db 0x00
	.db 0x00
	.db 0x00
	.db 0x00
	.db 0x00
	.db 0x00
	.db 0x00
	.db 0x00
	.db 0x00
	.db 0x00
	.db 0x00
	.db 0x00
	.db 0x00
	.db 0x00
	.db 0x00
	.db 0x00
	.db 0x00
	.db 0x00
	.db 0x00
	.db 0x00
	.db 0x00
	.db 0x00
	.db 0x00
	.db 0x00
	.db 0x00
	.db 0x00
	.db 0x00
	.db 0x00
	.db 0x00
	.db 0x00
	.db 0x00
	.db 0x00
	.db 0x00
	.db 0x00
	.db 0x00
	.db 0x00
	.db 0x00
	.db 0x00
	.db 0x00
	.db 0x00
	.db 0x00
	.db 0x00
	.db 0x00
	.db 0x00
	.db 0x00
	.db 0x00
	.db 0x00
	.db 0x00
	.db 0x00
	.db 0x00
	.db 0x00
	.db 0x00
	.db 0x00
	.db 0x00
	.db 0x00
	.db 0x00
	.db 0x00
	.db 0x00
	.db 0x00
	.db 0x00
	.db 0x00
	.db 0x00
	.db 0x00
	.db 0x00
	.db 0x00
	.db 0x00
	.db 0x00
	.db 0x00
	.db 0x00
	.db 0x00
	.db 0x00
	.db 0x00
	.db 0x00
	.db 0x00
	.db 0x00
	.db 0x00
	.db 0x00
	.db 0x00
	.db 0x00
	.db 0x00
	.db 0x00
	.db 0x00
	.db 0x00
	.db 0x00
	.db 0x00
	.db 0x00
	.db 0x00
	.db 0x00
	.db 0x00
	.db 0x00
	.db 0x00
	.db 0x00
	.db 0x00
	.db 0x00
	.db 0x00
	.db 0x00
	.db 0x00
	.db 0x00
	.db 0x00
	.db 0x00
	.db 0x00
	.db 0x00
	.db 0x00
	.db 0x00
	.db 0x00
	.db 0x00
	.db 0x00
	.db 0x00
	.db 0x00
	.db 0x00
	.db 0x00
	.db 0x00
	.db 0x00
	.db 0x00
	.db 0x00
	.db 0x00
	.db 0x00
	.db 0x00
	.db 0x00
	.db 0x00
	.db 0x00
	.db 0x00
	.db 0x00
	.db 0x00
	.db 0x00
	.db 0x00
	.db 0x00
	.db 0x00
	.db 0x00
	.db 0x00
	.db 0x00
	.db 0x00
	.db 0x00
	.db 0x00
	.db 0x00
	.db 0x00
	.db 0x00
	.db 0x00
	.db 0x00
	.db 0x00
	.db 0x00
	.db 0x00
	.db 0x00
	.db 0x00
	.db 0x00
	.db 0x00
	.db 0x00
	.db 0x00
	.db 0x00
	.db 0x00
	.db 0x00
	.db 0x00
	.db 0x00
	.db 0x00
	.db 0x00
	.db 0x00
	.db 0x00
	.db 0x00
	.db 0x00
	.db 0x00
	.db 0x00
	.db 0x00
	.db 0x00
	.db 0x00
	.db 0x00
	.db 0x00
	.db 0x00
	.db 0x00
	.db 0x00
	.db 0x00
	.db 0x00
	.db 0x00
	.db 0x00
	.db 0x00
	.db 0x00
	.db 0x00
	.db 0x00
	.db 0x00
	.db 0x00
	.db 0x00
	.db 0x00
	.db 0x00
	.db 0x00
	.db 0x00
	.db 0x00
	.db 0x00
	.db 0x00
	.db 0x00
	.db 0x00
	.db 0x00
	.db 0x00
	.db 0x00
	.db 0x00
	.db 0x00
	.db 0x00
	.db 0x00
	.db 0x00
	.db 0x00
	.db 0x00
	.db 0x00
	.db 0x00
	.db 0x00
	.db 0x00
	.db 0x00
	.db 0x00
	.db 0x00
	.db 0x00
	.db 0x00
	.db 0x00
	.db 0x00
	.db 0x00
	.db 0x00
	.db 0x00
	.db 0x00
	.db 0x00
	.db 0x00
	.db 0x00
	.db 0x00
	.db 0x00
	.db 0x00
	.db 0x00
	.db 0x00
	.db 0x00
	.db 0x00
	.db 0x00
	.db 0x00
	.db 0x00
	.db 0x00
	.db 0x00
	.db 0x00
	.db 0x00
	.db 0x00
	.db 0x00
	.db 0x00
	.db 0x00
	.db 0x00
	.db 0x00
	.db 0x00
	.db 0x00
	.db 0x00
	.db 0x00
	.db 0x00
	.db 0x00
	.db 0x00
	.db 0x00
	.db 0x00
	.db 0x00
	.db 0x00
	.db 0x00
	.db 0x00
	.db 0x00
	.db 0x00
	.db 0x00
	.db 0x00
	.db 0x00
	.db 0x00
	.db 0x00
	.db 0x00
	.db 0x00
	.db 0x00
	.db 0x00
	.db 0x00
	.db 0x00
	.db 0x00
	.db 0x00
	.db 0x00
	.db 0x00
	.db 0x00
	.db 0x00
	.db 0x00
	.db 0x00
	.db 0x00
	.db 0x00
	.db 0x00
	.db 0x00
	.db 0x00
	.db 0x00
	.db 0x00
	.db 0x00
	.db 0x00
	.db 0x00
	.db 0x00
	.db 0x00
	.db 0x00
	.db 0x00
	.db 0x00
	.db 0x00
	.db 0x00
	.db 0x00
	.db 0x00
	.db 0x00
	.db 0x00
	.db 0x00
	.db 0x00
	.db 0x00
	.db 0x00
	.db 0x00
	.db 0x00
	.db 0x00
	.db 0x00
	.db 0x00
	.db 0x00
	.db 0x00
	.db 0x00
	.db 0x00
	.db 0x00
	.db 0x00
	.db 0x00
	.db 0x00
	.db 0x00
	.db 0x00
	.db 0x00
	.db 0x00
	.db 0x00
	.db 0x00
	.db 0x00
	.db 0x00
	.db 0x00
	.db 0x00
	.db 0x00
	.db 0x00
	.db 0x00
	.db 0x00
	.db 0x00
	.db 0x00
	.db 0x00
	.db 0x00
	.db 0x00
	.db 0x00
	.db 0x00
	.db 0x00
	.db 0x00
	.db 0x00
	.db 0x00
	.db 0x00
	.db 0x00
	.db 0x00
	.db 0x00
	.db 0x00
	.db 0x00
	.db 0x00
	.db 0x00
	.db 0x00
	.db 0x00
	.db 0x00
	.db 0x00
	.db 0x00
	.db 0x00
	.db 0x00
	.db 0x00
	.db 0x00
	.db 0x00
	.db 0x00
	.db 0x00
	.db 0x00
	.db 0x00
	.db 0x00
	.db 0x00
	.db 0x00
	.db 0x00
	.db 0x00
	.db 0x00
	.db 0x00
	.db 0x00
	.db 0x00
	.db 0x00
	.db 0x00
	.db 0x00
	.db 0x00
	.db 0x00
	.db 0x00
	.db 0x00
	.db 0x00
	.db 0x00
	.db 0x00
	.db 0x00
	.db 0x00
	.db 0x00
	.db 0x00
	.db 0x00
	.db 0x00
	.db 0x00
	.db 0x00
	.db 0x00
	.db 0x00
	.db 0x00
	.db 0x00
	.db 0x00
	.db 0x00
	.db 0x00
	.db 0x00
	.db 0x00
	.db 0x00
	.db 0x00
	.db 0x00
	.db 0x00
	.db 0x00
	.db 0x00
	.db 0x00
	.db 0x00
	.db 0x00
	.db 0x00
	.db 0x00
	.db 0x00
	.db 0x00
	.db 0x00
	.db 0x00
	.db 0x00
	.db 0x00
	.db 0x00
	.db 0x00
	.db 0x00
	.db 0x00
	.db 0x00
	.db 0x00
	.db 0x00
	.db 0x00
	.db 0x00
	.db 0x00
	.db 0x00
	.db 0x00
	.db 0x00
	.db 0x00
	.db 0x00
	.db 0x00
	.db 0x00
	.db 0x00
	.db 0x00
	.db 0x00
	.db 0x00
	.db 0x00
	.db 0x00
	.db 0x00
	.db 0x00
	.db 0x00
	.db 0x00
	.db 0x00
	.db 0x00
	.db 0x00
	.db 0x00
	.db 0x00
	.db 0x00
	.db 0x00
	.db 0x00
	.db 0x00
	.db 0x00
	.db 0x00
	.db 0x00
	.db 0x00
	.db 0x00
	.db 0x00
	.db 0x00
	.db 0x00
	.db 0x00
	.db 0x00
	.db 0x00
	.db 0x00
	.db 0x00
	.db 0x00
	.db 0x00
	.db 0x00
	.db 0x00
	.db 0x00
	.db 0x00
	.db 0x00
	.db 0x00
	.db 0x00
	.db 0x00
	.db 0x00
	.db 0x00
	.db 0x00
	.db 0x00
	.db 0x00
	.db 0x00
	.db 0x00
	.db 0x00
	.db 0x00
	.db 0x00
	.db 0x00
	.db 0x00
	.db 0x00
	.db 0x00
	.db 0x00
	.db 0x00
	.db 0x00
	.db 0x00
	.db 0x00
	.db 0x00
	.db 0x00
	.db 0x00
	.db 0x00
	.db 0x00
	.db 0x00
	.db 0x00
	.db 0x00
	.db 0x00
	.db 0x00
	.db 0x00
	.db 0x00
	.db 0x00
	.db 0x00
	.db 0x00
	.db 0x00
	.db 0x00
	.db 0x00
	.db 0x00
	.db 0x00
	.db 0x00
	.db 0x00
	.db 0x00
	.db 0x00
	.db 0x00
	.db 0x00
	.db 0x00
	.db 0x00
	.db 0x00
	.db 0x00
	.db 0x00
	.db 0x00
	.db 0x00
	.db 0x00
	.db 0x00
	.db 0x00
	.db 0x00
	.db 0x00
	.db 0x00
	.db 0x00
	.db 0x00
	.db 0x00
	.db 0x00
	.db 0x00
	.db 0x00
	.db 0x00
	.db 0x00
	.db 0x00
	.db 0x00
	.db 0x00
	.db 0x00
	.db 0x00
	.db 0x00
	.db 0x00
	.db 0x00
	.db 0x00
	.db 0x00
	.db 0x00
	.db 0x00
	.db 0x00
	.db 0x00
	.db 0x00
	.db 0x00
	.db 0x00
	.db 0x00
	.db 0x00
	.db 0x00
	.db 0x00
	.db 0x00
	.db 0x00
	.db 0x00
	.db 0x00
	.db 0x00
	.db 0x00
	.db 0x00
	.db 0x00
	.db 0x00
	.db 0x00
	.db 0x00
	.db 0x00
	.db 0x00
	.db 0x00
	.db 0x00
	.db 0x00
	.db 0x00
	.db 0x00
	.db 0x00
	.db 0x00
	.db 0x00
	.db 0x00
	.db 0x00
	.db 0x00
	.db 0x00
	.db 0x00
	.db 0x00
	.db 0x00
	.db 0x00
	.db 0x00
	.db 0x00
	.db 0x00
	.db 0x00
	.db 0x00
	.db 0x00
	.db 0x00
	.db 0x00
	.db 0x00
	.db 0x00
	.db 0x00
	.db 0x00
	.db 0x00
	.db 0x00
	.db 0x00
	.db 0x00
	.db 0x00
	.db 0x00
	.db 0x00
	.db 0x00
	.db 0x00
	.db 0x00
	.db 0x00
	.db 0x00
	.db 0x00
	.db 0x00
	.db 0x00
	.db 0x00
	.db 0x00
	.db 0x00
	.db 0x00
	.db 0x00
	.db 0x00
	.db 0x00
	.db 0x00
	.db 0x00
	.db 0x00
	.db 0x00
	.db 0x00
	.db 0x00
	.db 0x00
	.db 0x00
	.db 0x00
	.db 0x00
	.db 0x00
	.db 0x00
	.db 0x00
	.db 0x00
	.db 0x00
	.db 0x00
	.db 0x00
	.db 0x00
	.db 0x00
	.db 0x00
	.db 0x00
	.db 0x00
	.db 0x00
	.db 0x00
	.db 0x00
	.db 0x00
	.db 0x00
	.db 0x00
	.db 0x00
	.db 0x00
	.db 0x00
	.db 0x00
	.db 0x00
	.db 0x00
	.db 0x00
	.db 0x00
	.db 0x00
	.db 0x00
	.db 0x00
	.db 0x00
	.db 0x00
	.db 0x00
	.db 0x00
	.db 0x00
	.db 0x00
	.db 0x00
	.db 0x00
	.db 0x00
	.db 0x00
	.db 0x00
	.db 0x00
	.db 0x00
	.db 0x00
	.db 0x00
	.db 0x00
	.db 0x00
	.db 0x00
	.db 0x00
	.db 0x00
	.db 0x00
	.db 0x00
	.db 0x00
	.db 0x00
	.db 0x00
	.db 0x00
	.db 0x00
	.db 0x00
	.db 0x00
	.db 0x00
	.db 0x00
	.db 0x00
	.db 0x00
	.db 0x00
	.db 0x00
	.db 0x00
	.db 0x00
	.db 0x00
	.db 0x00
	.db 0x00
	.db 0x00
	.db 0x00
	.db 0x00
	.db 0x00
	.db 0x00
	.db 0x00
	.db 0x00
	.db 0x00
	.db 0x00
	.db 0x00
	.db 0x00
	.db 0x00
	.db 0x00
	.db 0x00
	.db 0x00
	.db 0x00
	.db 0x00
	.db 0x00
	.db 0x00
	.db 0x00
	.db 0x00
	.db 0x00
	.db 0x00
	.db 0x00
	.db 0x00
	.db 0x00
	.db 0x00
	.db 0x00
	.db 0x00
	.db 0x00
	.db 0x00
	.db 0x00
	.db 0x00
	.db 0x00
	.db 0x00
	.db 0x00
	.db 0x00
	.db 0x00
	.db 0x00
	.db 0x00
	.db 0x00
	.db 0x00
	.db 0x00
	.db 0x00
	.db 0x00
	.db 0x00
	.db 0x00
	.db 0x00
	.db 0x00
	.db 0x00
	.db 0x00
	.db 0x00
	.db 0x00
	.db 0x00
	.db 0x00
	.db 0x00
	.db 0x00
	.db 0x00
	.db 0x00
	.db 0x00
	.db 0x00
	.db 0x00
	.db 0x00
	.db 0x00
	.db 0x00
	.db 0x00
	.db 0x00
	.db 0x00
	.db 0x00
	.db 0x00
	.db 0x00
	.db 0x00
	.db 0x00
	.db 0x00
	.db 0x00
	.db 0x00
	.db 0x00
	.db 0x00
	.db 0x00
	.db 0x00
	.db 0x00
	.db 0x00
	.db 0x00
	.db 0x00
	.db 0x00
	.db 0x00
	.db 0x00
	.db 0x00
	.db 0x00
	.db 0x00
	.db 0x00
	.db 0x00
	.db 0x00
	.db 0x00
	.db 0x00
	.db 0x00
	.db 0x00
	.db 0x00
	.db 0x00
	.db 0x00
	.db 0x00
	.db 0x00
	.db 0x00
	.db 0x00
	.db 0x00
	.db 0x00
	.db 0x00
	.db 0x00
	.db 0x00
	.db 0x00
	.db 0x00
	.db 0x00
	.db 0x00
	.db 0x00
	.db 0x00
	.db 0x00
	.db 0x00
	.db 0x00
	.db 0x00
	.db 0x00
	.db 0x00
	.db 0x00
	.db 0x00
	.db 0x00
	.db 0x00
	.db 0x00
	.db 0x00
	.db 0x00
	.db 0x00
	.db 0x00
	.db 0x00
	.db 0x00
	.db 0x00
	.db 0x00
	.db 0x00
	.db 0x00
	.db 0x00
	.db 0x00
	.db 0x00
	.db 0x00
	.db 0x00
	.db 0x00
	.db 0x00
	.db 0x00
	.db 0x00
	.db 0x00
	.db 0x00
	.db 0x00
	.db 0x00
	.db 0x00
	.db 0x00
	.db 0x00
	.db 0x00
	.db 0x00
	.db 0x00
	.db 0x00
	.db 0x00
	.db 0x00
	.db 0x00
	.db 0x00
	.db 0x00
	.db 0x00
	.db 0x00
	.db 0x00
	.db 0x00
	.db 0x00
	.db 0x00
	.db 0x00
	.db 0x00
	.db 0x00
	.db 0x00
	.db 0x00
	.db 0x00
	.db 0x00
	.db 0x00
	.db 0x00
	.db 0x00
	.db 0x00
	.db 0x00
	.db 0x00
	.db 0x00
	.db 0x00
	.db 0x00
	.db 0x00
	.db 0x00
	.db 0x00
	.db 0x00
	.db 0x00
	.db 0x00
	.db 0x00
	.db 0x00
	.db 0x00
	.db 0x00
	.db 0x00
	.db 0x00
	.db 0x00
	.db 0x00
	.db 0x00
	.db 0x00
	.db 0x00
	.db 0x00
	.db 0x00
	.db 0x00
	.db 0x00
	.db 0x00
	.db 0x00
	.db 0x00
	.db 0x00
	.db 0x00
	.db 0x00
	.db 0x00
	.db 0x00
	.db 0x00
	.db 0x00
	.db 0x00
	.db 0x00
	.db 0x00
	.db 0x00
	.db 0x00
	.db 0x00
	.db 0x00
	.db 0x00
	.db 0x00
	.db 0x00
	.db 0x00
	.db 0x00
	.db 0x00
	.db 0x00
	.db 0x00
	.db 0x00
	.db 0x00
	.db 0x00
	.db 0x00
	.db 0x00
	.db 0x00
	.db 0x00
	.db 0x00
	.db 0x00
	.db 0x00
	.db 0x00
	.db 0x00
	.db 0x00
	.db 0x00
	.db 0x00
	.db 0x00
	.db 0x00
	.db 0x00
	.db 0x00
	.db 0x00
	.db 0x00
	.db 0x00
	.db 0x00
	.db 0x00
	.db 0x00
	.db 0x00
	.db 0x00
	.db 0x00
	.db 0x00
	.db 0x00
	.db 0x00
	.db 0x00
	.db 0x00
	.db 0x00
	.db 0x00
	.db 0x00
	.db 0x00
	.db 0x00
	.db 0x00
	.db 0x00
	.db 0x00
	.db 0x00
	.db 0x00
	.db 0x00
	.db 0x00
	.db 0x00
	.db 0x00
	.db 0x00
	.db 0x00
	.db 0x00
	.db 0x00
	.db 0x00
	.db 0x00
	.db 0x00
	.db 0x00
	.db 0x00
	.db 0x00
	.db 0x00
	.db 0x00
	.db 0x00
	.db 0x00
	.db 0x00
	.db 0x00
	.db 0x00
	.db 0x00
	.db 0x00
	.db 0x00
	.db 0x00
	.db 0x00
	.db 0x00
	.db 0x00
	.db 0x00
	.db 0x00
	.db 0x00
	.db 0x00
	.db 0x00
	.db 0x00
	.db 0x00
	.db 0x00
	.db 0x00
	.db 0x00
	.db 0x00
	.db 0x00
	.db 0x00
	.db 0x00
	.db 0x00
	.db 0x00
	.db 0x00
	.db 0x00
	.db 0x00
	.db 0x00
	.db 0x00
	.db 0x00
	.db 0x00
	.db 0x00
	.db 0x00
	.db 0x00
	.db 0x00
	.db 0x00
	.db 0x00
	.db 0x00
	.db 0x00
	.db 0x00
	.db 0x00
	.db 0x00
	.db 0x00
	.db 0x00
	.db 0x00
	.db 0x00
	.db 0x00
	.db 0x00
	.db 0x00
	.db 0x00
	.db 0x00
	.db 0x00
	.db 0x00
	.db 0x00
	.db 0x00
	.db 0x00
	.db 0x00
	.db 0x00
	.db 0x00
	.db 0x00
	.db 0x00
	.db 0x00
	.db 0x00
	.db 0x00
	.db 0x00
	.db 0x00
	.db 0x00
	.db 0x00
	.db 0x00
	.db 0x00
	.db 0x00
	.db 0x00
	.db 0x00
	.db 0x00
	.db 0x00
	.db 0x00
	.db 0x00
	.db 0x00
	.db 0x00
	.db 0x00
	.db 0x00
	.db 0x00
	.db 0x00
	.db 0x00
	.db 0x00
	.db 0x00
	.db 0x00
	.db 0x00
	.db 0x00
	.db 0x00
	.db 0x00
	.db 0x00
	.db 0x00
	.db 0x00
	.db 0x00
	.db 0x00
	.db 0x00
	.db 0x00
	.db 0x00
	.db 0x00
	.db 0x00
	.db 0x00
	.db 0x00
	.db 0x00
	.db 0x00
	.db 0x00
	.db 0x00
	.db 0x00
	.db 0x00
	.db 0x00
	.db 0x00
	.db 0x00
	.db 0x00
	.db 0x00
	.db 0x00
	.db 0x00
	.db 0x00
	.db 0x00
	.db 0x00
	.db 0x00
	.db 0x00
	.db 0x00
	.db 0x00
	.db 0x00
	.db 0x00
	.db 0x00
	.db 0x00
	.db 0x00
	.db 0x00
	.db 0x00
	.db 0x00
	.db 0x00
	.db 0x00
	.db 0x00
	.db 0x00
	.db 0x00
	.db 0x00
	.db 0x00
	.db 0x00
	.db 0x00
	.db 0x00
	.db 0x00
	.db 0x00
	.db 0x00
	.db 0x00
	.db 0x00
	.db 0x00
	.db 0x00
	.db 0x00
	.db 0x00
	.db 0x00
	.db 0x00
	.db 0x00
	.db 0x00
	.db 0x00
	.db 0x00
	.db 0x00
	.db 0x00
	.db 0x00
	.db 0x00
	.db 0x00
	.db 0x00
	.db 0x00
	.db 0x00
	.db 0x00
	.db 0x00
	.db 0x00
	.db 0x00
	.db 0x00
	.db 0x00
	.db 0x00
	.db 0x00
	.db 0x00
	.db 0x00
	.db 0x00
	.db 0x00
	.db 0x00
	.db 0x00
	.db 0x00
	.db 0x00
	.db 0x00
	.db 0x00
	.db 0x00
	.db 0x00
	.db 0x00
	.db 0x00
	.db 0x00
	.db 0x00
	.db 0x00
	.db 0x00
	.db 0x00
	.db 0x00
	.db 0x00
	.db 0x00
	.db 0x00
	.db 0x00
	.db 0x00
	.db 0x00
	.db 0x00
	.db 0x00
	.db 0x00
	.db 0x00
	.db 0x00
	.db 0x00
	.db 0x00
	.db 0x00
	.db 0x00
	.db 0x00
	.db 0x00
	.db 0x00
	.db 0x00
	.db 0x00
	.db 0x00
	.db 0x00
	.db 0x00
	.db 0x00
	.db 0x00
	.db 0x00
	.db 0x00
	.db 0x00
	.db 0x00
	.db 0x00
	.db 0x00
	.db 0x00
	.db 0x00
	.db 0x00
	.db 0x00
	.db 0x00
	.db 0x00
	.db 0x00
	.db 0x00
	.db 0x00
	.db 0x00
	.db 0x00
	.db 0x00
	.db 0x00
	.db 0x00
	.db 0x00
	.db 0x00
	.db 0x00
	.db 0x00
	.db 0x00
	.db 0x00
	.db 0x00
	.db 0x00
	.db 0x00
	.db 0x00
	.db 0x00
	.db 0x00
	.db 0x00
	.db 0x00
	.db 0x00
	.db 0x00
	.db 0x00
	.db 0x00
	.db 0x00
	.db 0x00
	.db 0x00
	.db 0x00
	.db 0x00
	.db 0x00
	.db 0x00
	.db 0x00
	.db 0x00
	.db 0x00
	.db 0x00
	.db 0x00
	.db 0x00
	.db 0x00
	.db 0x00
	.db 0x00
	.db 0x00
	.db 0x00
	.db 0x00
	.db 0x00
	.db 0x00
	.db 0x00
	.db 0x00
	.db 0x00
	.db 0x00
	.db 0x00
	.db 0x00
	.db 0x00
	.db 0x00
	.db 0x00
	.db 0x00
	.db 0x00
	.db 0x00
	.db 0x00
	.db 0x00
	.db 0x00
	.db 0x00
	.db 0x00
	.db 0x00
	.db 0x00
	.db 0x00
	.db 0x00
	.db 0x00
	.db 0x00
	.db 0x00
	.db 0x00
	.db 0x00
	.db 0x00
	.db 0x00
	.db 0x00
	.db 0x00
	.db 0x00
	.db 0x00
	.db 0x00
	.db 0x00
	.db 0x00
	.db 0x00
	.db 0x00
	.db 0x00
	.db 0x00
	.db 0x00
	.db 0x00
	.db 0x00
	.db 0x00
	.db 0x00
	.db 0x00
	.db 0x00
	.db 0x00
	.db 0x00
	.db 0x00
	.db 0x00
	.db 0x00
	.db 0x00
	.db 0x00
	.db 0x00
	.db 0x00
	.db 0x00
	.db 0x00
	.db 0x00
	.db 0x00
	.db 0x00
	.db 0x00
	.db 0x00
	.db 0x00
	.db 0x00
	.db 0x00
	.db 0x00
	.db 0x00
	.db 0x00
	.db 0x00
	.db 0x00
	.db 0x00
	.db 0x00
	.db 0x00
	.db 0x00
	.db 0x00
	.db 0x00
	.db 0x00
	.db 0x00
	.db 0x00
	.db 0x00
	.db 0x00
	.db 0x00
	.db 0x00
	.db 0x00
	.db 0x00
	.db 0x00
	.db 0x00
	.db 0x00
	.db 0x00
	.db 0x00
	.db 0x00
	.db 0x00
	.db 0x00
	.db 0x00
	.db 0x00
	.db 0x00
	.db 0x00
	.db 0x00
	.db 0x00
	.db 0x00
	.db 0x00
	.db 0x00
	.db 0x00
	.db 0x00
	.db 0x00
	.db 0x00
	.db 0x00
	.db 0x00
	.db 0x00
	.db 0x00
	.db 0x00
	.db 0x00
	.db 0x00
	.db 0x00
	.db 0x00
	.db 0x00
	.db 0x00
	.db 0x00
	.db 0x00
	.db 0x00
	.db 0x00
	.db 0x00
	.db 0x00
	.db 0x00
	.db 0x00
	.db 0x00
	.db 0x00
	.db 0x00
	.db 0x00
	.db 0x00
	.db 0x00
	.db 0x00
	.db 0x00
	.db 0x00
	.db 0x00
	.db 0x00
	.db 0x00
	.db 0x00
	.db 0x00
	.db 0x00
	.db 0x00
	.db 0x00
	.db 0x00
	.db 0x00
	.db 0x00
	.db 0x00
	.db 0x00
	.db 0x00
	.db 0x00
	.db 0x00
	.db 0x00
	.db 0x00
	.db 0x00
	.db 0x00
	.db 0x00
	.db 0x00
	.db 0x00
	.db 0x00
	.db 0x00
	.db 0x00
	.db 0x00
	.db 0x00
	.db 0x00
	.db 0x00
	.db 0x00
	.db 0x00
	.db 0x00
	.db 0x00
	.db 0x00
	.db 0x00
	.db 0x00
	.db 0x00
	.db 0x00
	.db 0x00
	.db 0x00
	.db 0x00
	.db 0x00
	.db 0x00
	.db 0x00
	.db 0x00
	.db 0x00
	.db 0x00
	.db 0x00
	.db 0x00
	.db 0x00
	.db 0x00
	.db 0x00
	.db 0x00
	.db 0x00
	.db 0x00
	.db 0x00
	.db 0x00
	.db 0x00
	.db 0x00
	.db 0x00
	.db 0x00
	.db 0x00
	.db 0x00
	.db 0x00
	.db 0x00
	.db 0x00
	.db 0x00
	.db 0x00
	.db 0x00
	.db 0x00
	.db 0x00
	.db 0x00
	.db 0x00
	.db 0x00
	.db 0x00
	.db 0x00
	.db 0x00
	.db 0x00
	.db 0x00
	.db 0x00
	.db 0x00
	.db 0x00
	.db 0x00
	.db 0x00
	.db 0x00
	.db 0x00
	.db 0x00
	.db 0x00
	.db 0x00
	.db 0x00
	.db 0x00
	.db 0x00
	.db 0x00
	.db 0x00
	.db 0x00
	.db 0x00
	.db 0x00
	.db 0x00
	.db 0x00
	.db 0x00
	.db 0x00
	.db 0x00
	.db 0x00
	.db 0x00
	.db 0x00
	.db 0x00
	.db 0x00
	.db 0x00
	.db 0x00
	.db 0x00
	.db 0x00
	.db 0x00
	.db 0x00
	.db 0x00
	.db 0x00
	.db 0x00
	.db 0x00
	.db 0x00
	.db 0x00
	.db 0x00
	.db 0x00
	.db 0x00
	.db 0x00
	.db 0x00
	.db 0x00
	.db 0x00
	.db 0x00
	.db 0x00
	.db 0x00
	.db 0x00
	.db 0x00
	.db 0x00
	.db 0x00
	.db 0x00
	.db 0x00
	.db 0x00
	.db 0x00
	.db 0x00
	.db 0x00
	.db 0x00
	.db 0x00
	.db 0x00
	.db 0x00
	.db 0x00
	.db 0x00
	.db 0x00
	.db 0x00
	.db 0x00
	.db 0x00
	.db 0x00
	.db 0x00
	.db 0x00
	.db 0x00
	.db 0x00
	.db 0x00
	.db 0x00
	.db 0x00
	.db 0x00
	.db 0x00
	.db 0x00
	.db 0x00
	.db 0x00
	.db 0x00
	.db 0x00
	.db 0x00
	.db 0x00
	.db 0x00
	.db 0x00
	.db 0x00
	.db 0x00
	.db 0x00
	.db 0x00
	.db 0x00
	.db 0x00
	.db 0x00
	.db 0x00
	.db 0x00
	.db 0x00
	.db 0x00
	.db 0x00
	.db 0x00
	.db 0x00
	.db 0x00
	.db 0x00
	.db 0x00
	.db 0x00
	.db 0x00
	.db 0x00
	.db 0x00
	.db 0x00
	.db 0x00
	.db 0x00
	.db 0x00
	.db 0x00
	.db 0x00
	.db 0x00
	.db 0x00
	.db 0x00
	.db 0x00
	.db 0x00
	.db 0x00
	.db 0x00
	.db 0x00
	.db 0x00
	.db 0x00
	.db 0x00
	.db 0x00
	.db 0x00
	.db 0x00
	.db 0x00
	.db 0x00
	.db 0x00
	.db 0x00
	.db 0x00
	.db 0x00
	.db 0x00
	.db 0x00
	.db 0x00
	.db 0x00
	.db 0x00
	.db 0x00
	.db 0x00
	.db 0x00
	.db 0x00
	.db 0x00
	.db 0x00
	.db 0x00
	.db 0x00
	.db 0x00
	.db 0x00
	.db 0x00
	.db 0x00
	.db 0x00
	.db 0x00
	.db 0x00
	.db 0x00
	.db 0x00
	.db 0x00
	.db 0x00
	.db 0x00
	.db 0x00
	.db 0x00
	.db 0x00
	.db 0x00
	.db 0x00
	.db 0x00
	.db 0x00
	.db 0x00
	.db 0x00
	.db 0x00
	.db 0x00
	.db 0x00
	.db 0x00
	.db 0x00
	.db 0x00
	.db 0x00
	.db 0x00
	.db 0x00
	.db 0x00
	.db 0x00
	.db 0x00
	.db 0x00
	.db 0x00
	.db 0x00
	.db 0x00
	.db 0x00
	.db 0x00
	.db 0x00
	.db 0x00
	.db 0x00
	.db 0x00
	.db 0x00
	.db 0x00
	.db 0x00
	.db 0x00
	.db 0x00
	.db 0x00
	.db 0x00
	.db 0x00
	.db 0x00
	.db 0x00
	.db 0x00
	.db 0x00
	.db 0x00
	.db 0x00
	.db 0x00
	.db 0x00
	.db 0x00
	.db 0x00
	.db 0x00
	.db 0x00
	.db 0x00
	.db 0x00
	.db 0x00
	.db 0x00
	.db 0x00
	.db 0x00
	.db 0x00
	.db 0x00
	.db 0x00
	.db 0x00
	.db 0x00
	.db 0x00
	.db 0x00
	.db 0x00
	.db 0x00
	.db 0x00
	.db 0x00
	.db 0x00
	.db 0x00
	.db 0x00
	.db 0x00
	.db 0x00
	.db 0x00
	.db 0x00
	.db 0x00
	.db 0x00
	.db 0x00
	.db 0x00
	.db 0x00
	.db 0x00
	.db 0x00
	.db 0x00
	.db 0x00
	.db 0x00
	.db 0x00
	.db 0x00
	.db 0x00
	.db 0x00
	.db 0x00
	.db 0x00
	.db 0x00
	.db 0x00
	.db 0x00
	.db 0x00
	.db 0x00
	.db 0x00
	.db 0x00
	.db 0x00
	.db 0x00
	.db 0x00
	.db 0x00
	.db 0x00
	.db 0x00
	.db 0x00
	.db 0x00
	.db 0x00
	.db 0x00
	.db 0x00
	.db 0x00
	.db 0x00
	.db 0x00
	.db 0x00
	.db 0x00
	.db 0x00
	.db 0x00
	.db 0x00
	.db 0x00
	.db 0x00
	.db 0x00
	.db 0x00
	.db 0x00
	.db 0x00
	.db 0x00
	.db 0x00
	.db 0x00
	.db 0x00
	.db 0x00
	.db 0x00
	.db 0x00
	.db 0x00
	.db 0x00
	.db 0x00
	.db 0x00
	.db 0x00
	.db 0x00
	.db 0x00
	.db 0x00
	.db 0x00
	.db 0x00
	.db 0x00
	.db 0x00
	.db 0x00
	.db 0x00
	.db 0x00
	.db 0x00
	.db 0x00
	.db 0x00
	.db 0x00
	.db 0x00
	.db 0x00
	.db 0x00
	.db 0x00
	.db 0x00
	.db 0x00
	.db 0x00
	.db 0x00
	.db 0x00
	.db 0x00
	.db 0x00
	.db 0x00
	.db 0x00
	.db 0x00
	.db 0x00
	.db 0x00
	.db 0x00
	.db 0x00
	.db 0x00
	.db 0x00
	.db 0x00
	.db 0x00
	.db 0x00
	.db 0x00
	.db 0x00
	.db 0x00
	.db 0x00
	.db 0x00
	.db 0x00
	.db 0x00
	.db 0x00
	.db 0x00
	.db 0x00
	.db 0x00
	.db 0x00
	.db 0x00
	.db 0x00
	.db 0x00
	.db 0x00
	.db 0x00
	.db 0x00
	.db 0x00
	.db 0x00
	.db 0x00
	.db 0x00
	.db 0x00
	.db 0x00
	.db 0x00
	.db 0x00
	.db 0x00
	.db 0x00
	.db 0x00
	.db 0x00
	.db 0x00
	.db 0x00
	.db 0x00
	.db 0x00
	.db 0x00
	.db 0x00
	.db 0x00
	.db 0x00
	.db 0x00
	.db 0x00
	.db 0x00
	.db 0x00
	.db 0x00
	.db 0x00
	.db 0x00
	.db 0x00
	.db 0x00
	.db 0x00
	.db 0x00
	.db 0x00
	.db 0x00
	.db 0x00
	.db 0x00
	.db 0x00
	.db 0x00
	.db 0x00
	.db 0x00
	.db 0x00
	.db 0x00
	.db 0x00
	.db 0x00
	.db 0x00
	.db 0x00
	.db 0x00
	.db 0x00
	.db 0x00
	.db 0x00
	.db 0x00
	.db 0x00
	.db 0x00
	.db 0x00
	.db 0x00
	.db 0x00
	.db 0x00
	.db 0x00
	.db 0x00
	.db 0x00
	.db 0x00
	.db 0x00
	.db 0x00
	.db 0x00
	.db 0x00
	.db 0x00
	.db 0x00
	.db 0x00
	.db 0x00
	.db 0x00
	.db 0x00
	.db 0x00
	.db 0x00
	.db 0x00
	.db 0x00
	.db 0x00
	.db 0x00
	.db 0x00
	.db 0x00
	.db 0x00
	.db 0x00
	.db 0x00
	.db 0x00
	.db 0x00
	.db 0x00
	.db 0x00
	.db 0x00
	.db 0x00
	.db 0x00
	.db 0x00
	.db 0x00
	.db 0x00
	.db 0x00
	.db 0x00
	.db 0x00
	.db 0x00
	.db 0x00
	.db 0x00
	.db 0x00
	.db 0x00
	.db 0x00
	.db 0x00
	.db 0x00
	.db 0x00
	.db 0x00
	.db 0x00
	.db 0x00
	.db 0x00
	.db 0x00
	.db 0x00
	.db 0x00
	.db 0x00
	.db 0x00
	.db 0x00
	.db 0x00
	.db 0x00
	.db 0x00
	.db 0x00
	.db 0x00
	.db 0x00
	.db 0x00
	.db 0x00
	.db 0x00
	.db 0x00
	.db 0x00
	.db 0x00
	.db 0x00
	.db 0x00
	.db 0x00
	.db 0x00
	.db 0x00
	.db 0x00
	.db 0x00
	.db 0x00
	.db 0x00
	.db 0x00
	.db 0x00
	.db 0x00
	.db 0x00
	.db 0x00
	.db 0x00
	.db 0x00
	.db 0x00
	.db 0x00
	.db 0x00
	.db 0x00
	.db 0x00
	.db 0x00
	.db 0x00
	.db 0x00
	.db 0x00
	.db 0x00
	.db 0x00
	.db 0x00
	.db 0x00
	.db 0x00
	.db 0x00
	.db 0x00
	.db 0x00
	.db 0x00
	.db 0x00
	.db 0x00
	.db 0x00
	.db 0x00
	.db 0x00
	.db 0x00
	.db 0x00
	.db 0x00
	.db 0x00
	.db 0x00
	.db 0x00
	.db 0x00
	.db 0x00
	.db 0x00
	.db 0x00
	.db 0x00
	.db 0x00
	.db 0x00
	.db 0x00
	.db 0x00
	.db 0x00
	.db 0x00
	.db 0x00
	.db 0x00
	.db 0x00
	.db 0x00
	.db 0x00
	.db 0x00
	.db 0x00
	.db 0x00
	.db 0x00
	.db 0x00
	.db 0x00
	.db 0x00
	.db 0x00
	.db 0x00
	.db 0x00
	.db 0x00
	.db 0x00
	.db 0x00
	.db 0x00
	.db 0x00
	.db 0x00
	.db 0x00
	.db 0x00
	.db 0x00
	.db 0x00
	.db 0x00
	.db 0x00
	.db 0x00
	.db 0x00
	.db 0x00
	.db 0x00
	.db 0x00
	.db 0x00
	.db 0x00
	.db 0x00
	.db 0x00
	.db 0x00
	.db 0x00
	.db 0x00
	.db 0x00
	.db 0x00
	.db 0x00
	.db 0x00
	.db 0x00
	.db 0x00
	.db 0x00
	.db 0x00
	.db 0x00
	.db 0x00
	.db 0x00
	.db 0x00
	.db 0x00
	.db 0x00
	.db 0x00
	.db 0x00
	.db 0x00
	.db 0x00
	.db 0x00
	.db 0x00
	.db 0x00
	.db 0x00
	.db 0x00
	.db 0x00
	.db 0x00
	.db 0x00
	.db 0x00
	.db 0x00
	.db 0x00
	.db 0x00
	.db 0x00
	.db 0x00
	.db 0x00
	.db 0x00
	.db 0x00
	.db 0x00
	.db 0x00
	.db 0x00
	.db 0x00
	.db 0x00
	.db 0x00
	.db 0x00
	.db 0x00
	.db 0x00
	.db 0x00
	.db 0x00
	.db 0x00
	.db 0x00
	.db 0x00
	.db 0x00
	.db 0x00
	.db 0x00
	.db 0x00
	.db 0x00
	.db 0x00
	.db 0x00
	.db 0x00
	.db 0x00
	.db 0x00
	.db 0x00
	.db 0x00
	.db 0x00
	.db 0x00
	.db 0x00
	.db 0x00
	.db 0x00
	.db 0x00
	.db 0x00
	.db 0x00
	.db 0x00
	.db 0x00
	.db 0x00
	.db 0x00
	.db 0x00
	.db 0x00
	.db 0x00
	.db 0x00
	.db 0x00
	.db 0x00
	.db 0x00
	.db 0x00
	.db 0x00
	.db 0x00
	.db 0x00
	.db 0x00
	.db 0x00
	.db 0x00
	.db 0x00
	.db 0x00
	.db 0x00
	.db 0x00
	.db 0x00
	.db 0x00
	.db 0x00
	.db 0x00
	.db 0x00
	.db 0x00
	.db 0x00
	.db 0x00
	.db 0x00
	.db 0x00
	.db 0x00
	.db 0x00
	.db 0x00
	.db 0x00
	.db 0x00
	.db 0x00
	.db 0x00
	.db 0x00
	.db 0x00
	.db 0x00
	.db 0x00
	.db 0x00
	.db 0x00
	.db 0x00
	.db 0x00
	.db 0x00
	.db 0x00
	.db 0x00
	.db 0x00
	.db 0x00
	.db 0x00
	.db 0x00
	.db 0x00
	.db 0x00
	.db 0x00
	.db 0x00
	.db 0x00
	.db 0x00
	.db 0x00
	.db 0x00
	.db 0x00
	.db 0x00
	.db 0x00
	.db 0x00
	.db 0x00
	.db 0x00
	.db 0x00
	.db 0x00
	.db 0x00
	.db 0x00
	.db 0x00
	.db 0x00
	.db 0x00
	.db 0x00
	.db 0x00
	.db 0x00
	.db 0x00
	.db 0x00
	.db 0x00
	.db 0x00
	.db 0x00
	.db 0x00
	.db 0x00
	.db 0x00
	.db 0x00
	.db 0x00
	.db 0x00
	.db 0x00
	.db 0x00
	.db 0x00
	.db 0x00
	.db 0x00
	.db 0x00
	.db 0x00
	.db 0x00
	.db 0x00
	.db 0x00
	.db 0x00
	.db 0x00
	.db 0x00
	.db 0x00
	.db 0x00
	.db 0x00
	.db 0x00
	.db 0x00
	.db 0x00
	.db 0x00
	.db 0x00
	.db 0x00
	.db 0x00
	.db 0x00
	.db 0x00
	.db 0x00
	.db 0x00
	.db 0x00
	.db 0x00
	.db 0x00
	.db 0x00
	.db 0x00
	.db 0x00
	.db 0x00
	.db 0x00
	.db 0x00
	.db 0x00
	.db 0x00
	.db 0x00
	.db 0x00
	.db 0x00
	.db 0x00
	.db 0x00
	.db 0x00
	.db 0x00
	.db 0x00
	.db 0x00
	.db 0x00
	.db 0x00
	.db 0x00
	.db 0x00
	.db 0x00
	.db 0x00
	.db 0x00
	.db 0x00
	.db 0x00
	.db 0x00
	.db 0x00
	.db 0x00
	.db 0x00
	.db 0x00
	.db 0x00
	.db 0x00
	.db 0x00
	.db 0x00
	.db 0x00
	.db 0x00
	.db 0x00
	.db 0x00
	.db 0x00
	.db 0x00
	.db 0x00
	.db 0x00
	.db 0x00
	.db 0x00
	.db 0x00
	.db 0x00
	.db 0x00
	.db 0x00
	.db 0x00
	.db 0x00
	.db 0x00
	.db 0x00
	.db 0x00
	.db 0x00
	.db 0x00
	.db 0x00
	.db 0x00
	.db 0x00
	.db 0x00
	.db 0x00
	.db 0x00
	.db 0x00
	.db 0x00
	.db 0x00
	.db 0x00
	.db 0x00
	.db 0x00
	.db 0x00
	.db 0x00
	.db 0x00
	.db 0x00
	.db 0x00
	.db 0x00
	.db 0x00
	.db 0x00
	.db 0x00
	.db 0x00
	.db 0x00
	.db 0x00
	.db 0x00
	.db 0x00
	.db 0x00
	.db 0x00
	.db 0x00
	.db 0x00
	.db 0x00
	.db 0x00
	.db 0x00
	.db 0x00
	.db 0x00
	.db 0x00
	.db 0x00
	.db 0x00
	.db 0x00
	.db 0x00
	.db 0x00
	.db 0x00
	.db 0x00
	.db 0x00
	.db 0x00
	.db 0x00
	.db 0x00
	.db 0x00
	.db 0x00
	.db 0x00
	.db 0x00
	.db 0x00
	.db 0x00
	.db 0x00
	.db 0x00
	.db 0x00
	.db 0x00
	.db 0x00
	.db 0x00
	.db 0x00
	.db 0x00
	.db 0x00
	.db 0x00
	.db 0x00
	.db 0x00
	.db 0x00
	.db 0x00
	.db 0x00
	.db 0x00
	.db 0x00
	.db 0x00
	.db 0x00
	.db 0x00
	.db 0x00
	.db 0x00
	.db 0x00
	.db 0x00
	.db 0x00
	.db 0x00
	.db 0x00
	.db 0x00
	.db 0x00
	.db 0x00
	.db 0x00
	.db 0x00
	.db 0x00
	.db 0x00
	.db 0x00
	.db 0x00
	.db 0x00
	.db 0x00
	.db 0x00
	.db 0x00
	.db 0x00
	.db 0x00
	.db 0x00
	.db 0x00
	.db 0x00
	.db 0x00
	.db 0x00
	.db 0x00
	.db 0x00
	.db 0x00
	.db 0x00
	.db 0x00
	.db 0x00
	.db 0x00
	.db 0x00
	.db 0x00
	.db 0x00
	.db 0x00
	.db 0x00
	.db 0x00
	.db 0x00
	.db 0x00
	.db 0x00
	.db 0x00
	.db 0x00
	.db 0x00
	.db 0x00
	.db 0x00
	.db 0x00
	.db 0x00
	.db 0x00
	.db 0x00
	.db 0x00
	.db 0x00
	.db 0x00
	.db 0x00
	.db 0x00
	.db 0x00
	.db 0x00
	.db 0x00
	.db 0x00
	.db 0x00
	.db 0x00
	.db 0x00
	.db 0x00
	.db 0x00
	.db 0x00
	.db 0x00
	.db 0x00
	.db 0x00
	.db 0x00
	.db 0x00
	.db 0x00
	.db 0x00
	.db 0x00
	.db 0x00
	.db 0x00
	.db 0x00
	.db 0x00
	.db 0x00
	.db 0x00
	.db 0x00
	.db 0x00
	.db 0x00
	.db 0x00
	.db 0x00
	.db 0x00
	.db 0x00
	.db 0x00
	.db 0x00
	.db 0x00
	.db 0x00
	.db 0x00
	.db 0x00
	.db 0x00
	.db 0x00
	.db 0x00
	.db 0x00
	.db 0x00
	.db 0x00
	.db 0x00
	.db 0x00
	.db 0x00
	.db 0x00
	.db 0x00
	.db 0x00
	.db 0x00
	.db 0x00
	.db 0x00
	.db 0x00
	.db 0x00
	.db 0x00
	.db 0x00
	.db 0x00
	.db 0x00
	.db 0x00
	.db 0x00
	.db 0x00
	.db 0x00
	.db 0x00
	.db 0x00
	.db 0x00
	.db 0x00
	.db 0x00
	.db 0x00
	.db 0x00
	.db 0x00
	.db 0x00
	.db 0x00
	.db 0x00
	.db 0x00
	.db 0x00
	.db 0x00
	.db 0x00
	.db 0x00
	.db 0x00
	.db 0x00
	.db 0x00
	.db 0x00
	.db 0x00
	.db 0x00
	.db 0x00
	.db 0x00
	.db 0x00
	.db 0x00
	.db 0x00
	.db 0x00
	.db 0x00
	.db 0x00
	.db 0x00
	.db 0x00
	.db 0x00
	.db 0x00
	.db 0x00
	.db 0x00
	.db 0x00
	.db 0x00
	.db 0x00
	.db 0x00
	.db 0x00
	.db 0x00
	.db 0x00
	.db 0x00
	.db 0x00
	.db 0x00
	.db 0x00
	.db 0x00
	.db 0x00
	.db 0x00
	.db 0x00
	.db 0x00
	.db 0x00
	.db 0x00
	.db 0x00
	.db 0x00
	.db 0x00
	.db 0x00
	.db 0x00
	.db 0x00
	.db 0x00
	.db 0x00
	.db 0x00
	.db 0x00
	.db 0x00
	.db 0x00
	.db 0x00
	.db 0x00
	.db 0x00
	.db 0x00
	.db 0x00
	.db 0x00
	.db 0x00
	.db 0x00
	.db 0x00
	.db 0x00
	.db 0x00
	.db 0x00
	.db 0x00
	.db 0x00
	.db 0x00
	.db 0x00
	.db 0x00
	.db 0x00
	.db 0x00
	.db 0x00
	.db 0x00
	.db 0x00
	.db 0x00
	.db 0x00
	.db 0x00
	.db 0x00
	.db 0x00
	.db 0x00
	.db 0x00
	.db 0x00
	.db 0x00
	.db 0x00
	.db 0x00
	.db 0x00
	.db 0x00
	.db 0x00
	.db 0x00
	.db 0x00
	.db 0x00
	.db 0x00
	.db 0x00
	.db 0x00
	.db 0x00
	.db 0x00
	.db 0x00
	.db 0x00
	.db 0x00
	.db 0x00
	.db 0x00
	.db 0x00
	.db 0x00
	.db 0x00
	.db 0x00
	.db 0x00
	.db 0x00
	.db 0x00
	.db 0x00
	.db 0x00
	.db 0x00
	.db 0x00
	.db 0x00
	.db 0x00
	.db 0x00
	.db 0x00
	.db 0x00
	.db 0x00
	.db 0x00
	.db 0x00
	.db 0x00
	.db 0x00
	.db 0x00
	.db 0x00
	.db 0x00
	.db 0x00
	.db 0x00
	.db 0x00
	.db 0x00
	.db 0x00
	.db 0x00
	.db 0x00
	.db 0x00
	.db 0x00
	.db 0x00
	.db 0x00
	.db 0x00
	.db 0x00
	.db 0x00
	.db 0x00
	.db 0x00
	.db 0x00
	.db 0x00
	.db 0x00
	.db 0x00
	.db 0x00
	.db 0x00
	.db 0x00
	.db 0x00
	.db 0x00
	.db 0x00
	.db 0x00
	.db 0x00
	.db 0x00
	.db 0x00
	.db 0x00
	.db 0x00
	.db 0x00
	.db 0x00
	.db 0x00
	.db 0x00
	.db 0x00
	.db 0x00
	.db 0x00
	.db 0x00
	.db 0x00
	.db 0x00
	.db 0x00
	.db 0x00
	.db 0x00
	.db 0x00
	.db 0x00
	.db 0x00
	.db 0x00
	.db 0x00
	.db 0x00
	.db 0x00
	.db 0x00
	.db 0x00
	.db 0x00
	.db 0x00
	.db 0x00
	.db 0x00
	.db 0x00
	.db 0x00
	.db 0x00
	.db 0x00
	.db 0x00
	.db 0x00
	.db 0x00
	.db 0x00
	.db 0x00
	.db 0x00
	.db 0x00
	.db 0x00
	.db 0x00
	.db 0x00
	.db 0x00
	.db 0x00
	.db 0x00
	.db 0x00
	.db 0x00
	.db 0x00
	.db 0x00
	.db 0x00
	.db 0x00
	.db 0x00
	.db 0x00
	.db 0x00
	.db 0x00
	.db 0x00
	.db 0x00
	.db 0x00
	.db 0x00
	.db 0x00
	.db 0x00
	.db 0x00
	.db 0x00
	.db 0x00
	.db 0x00
	.db 0x00
	.db 0x00
	.db 0x00
	.db 0x00
	.db 0x00
	.db 0x00
	.db 0x00
	.db 0x00
	.db 0x00
	.db 0x00
	.db 0x00
	.db 0x00
	.db 0x00
	.db 0x00
	.db 0x00
	.db 0x00
	.db 0x00
	.db 0x00
	.db 0x00
	.db 0x00
	.db 0x00
	.db 0x00
	.db 0x00
	.db 0x00
	.db 0x00
	.db 0x00
	.db 0x00
	.db 0x00
	.db 0x00
	.db 0x00
	.db 0x00
	.db 0x00
	.db 0x00
	.db 0x00
	.db 0x00
	.db 0x00
	.db 0x00
	.db 0x00
	.db 0x00
	.db 0x00
	.db 0x00
	.db 0x00
	.db 0x00
	.db 0x00
	.db 0x00
	.db 0x00
	.db 0x00
	.db 0x00
	.db 0x00
	.db 0x00
	.db 0x00
	.db 0x00
	.db 0x00
	.db 0x00
	.db 0x00
	.db 0x00
	.db 0x00
	.db 0x00
	.db 0x00
	.db 0x00
	.db 0x00
	.db 0x00
	.db 0x00
	.db 0x00
	.db 0x00
	.db 0x00
	.db 0x00
	.db 0x00
	.db 0x00
	.db 0x00
	.db 0x00
	.db 0x00
	.db 0x00
	.db 0x00
	.db 0x00
	.db 0x00
	.db 0x00
	.db 0x00
	.db 0x00
	.db 0x00
	.db 0x00
	.db 0x00
	.db 0x00
	.db 0x00
	.db 0x00
	.db 0x00
	.db 0x00
	.db 0x00
	.db 0x00
	.db 0x00
	.db 0x00
	.db 0x00
	.db 0x00
	.db 0x00
	.db 0x00
	.db 0x00
	.db 0x00
	.db 0x00
	.db 0x00
	.db 0x00
	.db 0x00
	.db 0x00
	.db 0x00
	.db 0x00
	.db 0x00
	.db 0x00
	.db 0x00
	.db 0x00
	.db 0x00
	.db 0x00
	.db 0x00
	.db 0x00
	.db 0x00
	.db 0x00
	.db 0x00
	.db 0x00
	.db 0x00
	.db 0x00
	.db 0x00
	.db 0x00
	.db 0x00
	.db 0x00
	.db 0x00
	.db 0x00
	.db 0x00
	.db 0x00
	.db 0x00
	.db 0x00
	.db 0x00
	.db 0x00
	.db 0x00
	.db 0x00
	.db 0x00
	.db 0x00
	.db 0x00
	.db 0x00
	.db 0x00
	.db 0x00
	.db 0x00
	.db 0x00
	.db 0x00
	.db 0x00
	.db 0x00
	.db 0x00
	.db 0x00
	.db 0x00
	.db 0x00
	.db 0x00
	.db 0x00
	.db 0x00
	.db 0x00
	.db 0x00
	.db 0x00
	.db 0x00
	.db 0x00
	.db 0x00
	.db 0x00
	.db 0x00
	.db 0x00
	.db 0x00
	.db 0x00
	.db 0x00
	.db 0x00
	.db 0x00
	.db 0x00
	.db 0x00
	.db 0x00
	.db 0x00
	.db 0x00
	.db 0x00
	.db 0x00
	.db 0x00
	.db 0x00
	.db 0x00
	.db 0x00
	.db 0x00
	.db 0x00
	.db 0x00
	.db 0x00
	.db 0x00
	.db 0x00
	.db 0x00
	.db 0x00
	.db 0x00
	.db 0x00
	.db 0x00
	.db 0x00
	.db 0x00
	.db 0x00
	.db 0x00
	.db 0x00
	.db 0x00
	.db 0x00
	.db 0x00
	.db 0x00
	.db 0x00
	.db 0x00
	.db 0x00
	.db 0x00
	.db 0x00
	.db 0x00
	.db 0x00
	.db 0x00
	.db 0x00
	.db 0x00
	.db 0x00
	.db 0x00
	.db 0x00
	.db 0x00
	.db 0x00
	.db 0x00
	.db 0x00
	.db 0x00
	.db 0x00
	.db 0x00
	.db 0x00
	.db 0x00
	.db 0x00
	.db 0x00
	.db 0x00
	.db 0x00
	.db 0x00
	.db 0x00
	.db 0x00
	.db 0x00
	.db 0x00
	.db 0x00
	.db 0x00
	.db 0x00
	.db 0x00
	.db 0x00
	.db 0x00
	.db 0x00
	.db 0x00
	.db 0x00
	.db 0x00
	.db 0x00
	.db 0x00
	.db 0x00
	.db 0x00
	.db 0x00
	.db 0x00
	.db 0x00
	.db 0x00
	.db 0x00
	.db 0x00
	.db 0x00
	.db 0x00
	.db 0x00
	.db 0x00
	.db 0x00
	.db 0x00
	.db 0x00
	.db 0x00
	.db 0x00
	.db 0x00
	.db 0x00
	.db 0x00
	.db 0x00
	.db 0x00
	.db 0x00
	.db 0x00
	.db 0x00
	.db 0x00
	.db 0x00
	.db 0x00
	.db 0x00
	.db 0x00
	.db 0x00
	.db 0x00
	.db 0x00
	.db 0x00
	.db 0x00
	.db 0x00
	.db 0x00
	.db 0x00
	.db 0x00
	.db 0x00
	.db 0x00
	.db 0x00
	.db 0x00
	.db 0x00
	.db 0x00
	.db 0x00
	.db 0x00
	.db 0x00
	.db 0x00
	.db 0x00
	.db 0x00
	.db 0x00
	.db 0x00
	.db 0x00
	.db 0x00
	.db 0x00
	.db 0x00
	.db 0x00
	.db 0x00
	.db 0x00
	.db 0x00
	.db 0x00
	.db 0x00
	.db 0x00
	.db 0x00
	.db 0x00
	.db 0x00
	.db 0x00
	.db 0x00
	.db 0x00
	.db 0x00
	.db 0x00
	.db 0x00
	.db 0x00
	.db 0x00
	.db 0x00
	.db 0x00
	.db 0x00
	.db 0x00
	.db 0x00
	.db 0x00
	.db 0x00
	.db 0x00
	.db 0x00
	.db 0x00
	.db 0x00
	.db 0x00
	.db 0x00
	.db 0x00
	.db 0x00
	.db 0x00
	.db 0x00
	.db 0x00
	.db 0x00
	.db 0x00
	.db 0x00
	.db 0x00
	.db 0x00
	.db 0x00
	.db 0x00
	.db 0x00
	.db 0x00
	.db 0x00
	.db 0x00
	.db 0x00
	.db 0x00
	.db 0x00
	.db 0x00
	.db 0x00
	.db 0x00
	.db 0x00
	.db 0x00
	.db 0x00
	.db 0x00
	.db 0x00
	.db 0x00
	.db 0x00
	.db 0x00
	.db 0x00
	.db 0x00
	.db 0x00
	.db 0x00
	.db 0x00
	.db 0x00
	.db 0x00
	.db 0x00
	.db 0x00
	.db 0x00
	.db 0x00
	.db 0x00
	.db 0x00
	.db 0x00
	.db 0x00
	.db 0x00
	.db 0x00
	.db 0x00
	.db 0x00
	.db 0x00
	.db 0x00
	.db 0x00
	.db 0x00
	.db 0x00
	.db 0x00
	.db 0x00
	.db 0x00
	.db 0x00
	.db 0x00
	.db 0x00
	.db 0x00
	.db 0x00
	.db 0x00
	.db 0x00
	.db 0x00
	.db 0x00
	.db 0x00
	.db 0x00
	.db 0x00
	.db 0x00
	.db 0x00
	.db 0x00
	.db 0x00
	.db 0x00
	.db 0x00
	.db 0x00
	.db 0x00
	.db 0x00
	.db 0x00
	.db 0x00
	.db 0x00
	.db 0x00
	.db 0x00
	.db 0x00
	.db 0x00
	.db 0x00
	.db 0x00
	.db 0x00
	.db 0x00
	.db 0x00
	.db 0x00
	.db 0x00
	.db 0x00
	.db 0x00
	.db 0x00
	.db 0x00
	.db 0x00
	.db 0x00
	.db 0x00
	.db 0x00
	.db 0x00
	.db 0x00
	.db 0x00
	.db 0x00
	.db 0x00
	.db 0x00
	.db 0x00
	.db 0x00
	.db 0x00
	.db 0x00
	.db 0x00
	.db 0x00
	.db 0x00
	.db 0x00
	.db 0x00
	.db 0x00
	.db 0x00
	.db 0x00
	.db 0x00
	.db 0x00
	.db 0x00
	.db 0x00
	.db 0x00
	.db 0x00
	.db 0x00
	.db 0x00
	.db 0x00
	.db 0x00
	.db 0x00
	.db 0x00
	.db 0x00
	.db 0x00
	.db 0x00
	.db 0x00
	.db 0x00
	.db 0x00
	.db 0x00
	.db 0x00
	.db 0x00
	.db 0x00
	.db 0x00
	.db 0x00
	.db 0x00
	.db 0x00
	.db 0x00
	.db 0x00
	.db 0x00
	.db 0x00
	.db 0x00
	.db 0x00
	.db 0x00
	.db 0x00
	.db 0x00
	.db 0x00
	.db 0x00
	.db 0x00
	.db 0x00
	.db 0x00
	.db 0x00
	.db 0x00
	.db 0x00
	.db 0x00
	.db 0x00
	.db 0x00
	.db 0x00
	.db 0x00
	.db 0x00
	.db 0x00
	.db 0x00
	.db 0x00
	.db 0x00
	.db 0x00
	.db 0x00
	.db 0x00
	.db 0x00
	.db 0x00
	.db 0x00
	.db 0x00
	.db 0x00
	.db 0x00
	.db 0x00
	.db 0x00
	.db 0x00
	.db 0x00
	.db 0x00
	.db 0x00
	.db 0x00
	.db 0x00
	.db 0x00
	.db 0x00
	.db 0x00
	.db 0x00
	.db 0x00
	.db 0x00
	.db 0x00
	.db 0x00
	.db 0x00
	.db 0x00
	.db 0x00
	.db 0x00
	.db 0x00
	.db 0x00
	.db 0x00
	.db 0x00
	.db 0x00
	.db 0x00
	.db 0x00
	.db 0x00
	.db 0x00
	.db 0x00
	.db 0x00
	.db 0x00
	.db 0x00
	.db 0x00
	.db 0x00
	.db 0x00
	.db 0x00
	.db 0x00
	.db 0x00
	.db 0x00
	.db 0x00
	.db 0x00
	.db 0x00
	.db 0x00
	.db 0x00
	.db 0x00
	.db 0x00
	.db 0x00
	.db 0x00
	.db 0x00
	.db 0x00
	.db 0x00
	.db 0x00
	.db 0x00
	.db 0x00
	.db 0x00
	.db 0x00
	.db 0x00
	.db 0x00
	.db 0x00
	.db 0x00
	.db 0x00
	.db 0x00
	.db 0x00
	.db 0x00
	.db 0x00
	.db 0x00
	.db 0x00
	.db 0x00
	.db 0x00
	.db 0x00
	.db 0x00
	.db 0x00
	.db 0x00
	.db 0x00
	.db 0x00
	.db 0x00
	.db 0x00
	.db 0x00
	.db 0x00
	.db 0x00
	.db 0x00
	.db 0x00
	.db 0x00
	.db 0x00
	.db 0x00
	.db 0x00
	.db 0x00
	.db 0x00
	.db 0x00
	.db 0x00
	.db 0x00
	.db 0x00
	.db 0x00
	.db 0x00
	.db 0x00
	.db 0x00
	.db 0x00
	.db 0x00
	.db 0x00
	.db 0x00
	.db 0x00
	.db 0x00
	.db 0x00
	.db 0x00
	.db 0x00
	.db 0x00
	.db 0x00
	.db 0x00
	.db 0x00
	.db 0x00
	.db 0x00
	.db 0x00
	.db 0x00
	.db 0x00
	.db 0x00
	.db 0x00
	.db 0x00
	.db 0x00
	.db 0x00
	.db 0x00
	.db 0x00
	.db 0x00
	.db 0x00
	.db 0x00
	.db 0x00
	.db 0x00
	.db 0x00
	.db 0x00
	.db 0x00
	.db 0x00
	.db 0x00
	.db 0x00
	.db 0x00
	.db 0x00
	.db 0x00
	.db 0x00
	.db 0x00
	.db 0x00
	.db 0x00
	.db 0x00
	.db 0x00
	.db 0x00
	.db 0x00
	.db 0x00
	.db 0x00
	.db 0x00
	.db 0x00
	.db 0x00
	.db 0x00
	.db 0x00
	.db 0x00
	.db 0x00
	.db 0x00
	.db 0x00
	.db 0x00
	.db 0x00
	.db 0x00
	.db 0x00
	.db 0x00
	.db 0x00
	.db 0x00
	.db 0x00
	.db 0x00
	.db 0x00
	.db 0x00
	.db 0x00
	.db 0x00
	.db 0x00
	.db 0x00
	.db 0x00
	.db 0x00
	.db 0x00
	.db 0x00
	.db 0x00
	.db 0x00
	.db 0x00
	.db 0x00
	.db 0x00
	.db 0x00
	.db 0x00
	.db 0x00
	.db 0x00
	.db 0x00
	.db 0x00
	.db 0x00
	.db 0x00
	.db 0x00
	.db 0x00
	.db 0x00
	.db 0x00
	.db 0x00
	.db 0x00
	.db 0x00
	.db 0x00
	.db 0x00
	.db 0x00
	.db 0x00
	.db 0x00
	.db 0x00
	.db 0x00
	.db 0x00
	.db 0x00
	.db 0x00
	.db 0x00
	.db 0x00
	.db 0x00
	.db 0x00
	.db 0x00
	.db 0x00
	.db 0x00
	.db 0x00
	.db 0x00
	.db 0x00
	.db 0x00
	.db 0x00
	.db 0x00
	.db 0x00
	.db 0x00
	.db 0x00
	.db 0x00
	.db 0x00
	.db 0x00
	.db 0x00
	.db 0x00
	.db 0x00
	.db 0x00
	.db 0x00
	.db 0x00
	.db 0x00
	.db 0x00
	.db 0x00
	.db 0x00
	.db 0x00
	.db 0x00
	.db 0x00
	.db 0x00
	.db 0x00
	.db 0x00
	.db 0x00
	.db 0x00
	.db 0x00
	.db 0x00
	.db 0x00
	.db 0x00
	.db 0x00
	.db 0x00
	.db 0x00
	.db 0x00
	.db 0x00
	.db 0x00
	.db 0x00
	.db 0x00
	.db 0x00
	.db 0x00
	.db 0x00
	.db 0x00
	.db 0x00
	.db 0x00
	.db 0x00
	.db 0x00
	.db 0x00
	.db 0x00
	.db 0x00
	.db 0x00
	.db 0x00
	.db 0x00
	.db 0x00
	.db 0x00
	.db 0x00
	.db 0x00
	.db 0x00
	.db 0x00
	.db 0x00
	.db 0x00
	.db 0x00
	.db 0x00
	.db 0x00
	.db 0x00
	.db 0x00
	.db 0x00
	.db 0x00
	.db 0x00
	.db 0x00
	.db 0x00
	.db 0x00
	.db 0x00
	.db 0x00
	.db 0x00
	.db 0x00
	.db 0x00
	.db 0x00
	.db 0x00
	.db 0x00
	.db 0x00
	.db 0x00
	.db 0x00
	.db 0x00
	.db 0x00
	.db 0x00
	.db 0x00
	.db 0x00
	.db 0x00
	.db 0x00
	.db 0x00
	.db 0x00
	.db 0x00
	.db 0x00
	.db 0x00
	.db 0x00
	.db 0x00
	.db 0x00
	.db 0x00
	.db 0x00
	.db 0x00
	.db 0x00
	.db 0x00
	.db 0x00
	.db 0x00
	.db 0x00
	.db 0x00
	.db 0x00
	.db 0x00
	.db 0x00
	.db 0x00
	.db 0x00
	.db 0x00
	.db 0x00
	.db 0x00
	.db 0x00
	.db 0x00
	.db 0x00
	.db 0x00
	.db 0x00
	.db 0x00
	.db 0x00
	.db 0x00
	.db 0x00
	.db 0x00
	.db 0x00
	.db 0x00
	.db 0x00
	.db 0x00
	.db 0x00
	.db 0x00
	.db 0x00
	.db 0x00
	.db 0x00
	.db 0x00
	.db 0x00
	.db 0x00
	.db 0x00
	.db 0x00
	.db 0x00
	.db 0x00
	.db 0x00
	.db 0x00
	.db 0x00
	.db 0x00
	.db 0x00
	.db 0x00
	.db 0x00
	.db 0x00
	.db 0x00
	.db 0x00
	.db 0x00
	.db 0x00
	.db 0x00
	.db 0x00
	.db 0x00
	.db 0x00
	.db 0x00
	.db 0x00
	.db 0x00
	.db 0x00
	.db 0x00
	.db 0x00
	.db 0x00
	.db 0x00
	.db 0x00
	.db 0x00
	.db 0x00
	.db 0x00
	.db 0x00
	.db 0x00
	.db 0x00
	.db 0x00
	.db 0x00
	.db 0x00
	.db 0x00
	.db 0x00
	.db 0x00
	.db 0x00
	.db 0x00
	.db 0x00
	.db 0x00
	.db 0x00
	.db 0x00
	.db 0x00
	.db 0x00
	.db 0x00
	.db 0x00
	.db 0x00
	.db 0x00
	.db 0x00
	.db 0x00
	.db 0x00
	.db 0x00
	.db 0x00
	.db 0x00
	.db 0x00
	.db 0x00
	.db 0x00
	.db 0x00
	.db 0x00
	.db 0x00
	.db 0x00
	.db 0x00
	.db 0x00
	.db 0x00
	.db 0x00
	.db 0x00
	.db 0x00
	.db 0x00
	.db 0x00
	.db 0x00
	.db 0x00
	.db 0x00
	.db 0x00
	.db 0x00
	.db 0x00
	.db 0x00
	.db 0x00
	.db 0x00
	.db 0x00
	.db 0x00
	.db 0x00
	.db 0x00
	.db 0x00
	.db 0x00
	.db 0x00
	.db 0x00
	.db 0x00
	.db 0x00
	.db 0x00
	.db 0x00
	.db 0x00
	.db 0x00
	.db 0x00
	.db 0x00
	.db 0x00
	.db 0x00
	.db 0x00
	.db 0x00
	.db 0x00
	.db 0x00
	.db 0x00
	.db 0x00
	.db 0x00
	.db 0x00
	.db 0x00
	.db 0x00
	.db 0x00
	.db 0x00
	.db 0x00
	.db 0x00
	.db 0x00
	.db 0x00
	.db 0x00
	.db 0x00
	.db 0x00
	.db 0x00
	.db 0x00
	.db 0x00
	.db 0x00
	.db 0x00
	.db 0x00
	.db 0x00
	.db 0x00
	.db 0x00
	.db 0x00
	.db 0x00
	.db 0x00
	.db 0x00
	.db 0x00
	.db 0x00
	.db 0x00
	.db 0x00
	.db 0x00
	.db 0x00
	.db 0x00
	.db 0x00
	.db 0x00
	.db 0x00
	.db 0x00
	.db 0x00
	.db 0x00
	.db 0x00
	.db 0x00
	.db 0x00
	.db 0x00
	.db 0x00
	.db 0x00
	.db 0x00
	.db 0x00
	.db 0x00
	.db 0x00
	.db 0x00
	.db 0x00
	.db 0x00
	.db 0x00
	.db 0x00
	.db 0x00
	.db 0x00
	.db 0x00
	.db 0x00
	.db 0x00
	.db 0x00
	.db 0x00
	.db 0x00
	.db 0x00
	.db 0x00
	.db 0x00
	.db 0x00
	.db 0x00
	.db 0x00
	.db 0x00
	.db 0x00
	.db 0x00
	.db 0x00
	.db 0x00
	.db 0x00
	.db 0x00
	.db 0x00
	.db 0x00
	.db 0x00
	.db 0x00
	.db 0x00
	.db 0x00
	.db 0x00
	.db 0x00
	.db 0x00
	.db 0x00
	.db 0x00
	.db 0x00
	.db 0x00
	.db 0x00
	.db 0x00
	.db 0x00
	.db 0x00
	.db 0x00
	.db 0x00
	.db 0x00
	.db 0x00
	.db 0x00
	.db 0x00
	.db 0x00
	.db 0x00
	.db 0x00
	.db 0x00
	.db 0x00
	.db 0x00
	.db 0x00
	.db 0x00
	.db 0x00
	.db 0x00
	.db 0x00
	.db 0x00
	.db 0x00
	.db 0x00
	.db 0x00
	.db 0x00
	.db 0x00
	.db 0x00
	.db 0x00
	.db 0x00
	.db 0x00
	.db 0x00
	.db 0x00
	.db 0x00
	.db 0x00
	.db 0x00
	.db 0x00
	.db 0x00
	.db 0x00
	.db 0x00
	.db 0x00
	.db 0x00
	.db 0x00
	.db 0x00
	.db 0x00
	.db 0x00
	.db 0x00
	.db 0x00
	.db 0x00
	.db 0x00
	.db 0x00
	.db 0x00
	.db 0x00
	.db 0x00
	.db 0x00
	.db 0x00
	.db 0x00
	.db 0x00
	.db 0x00
	.db 0x00
	.db 0x00
	.db 0x00
	.db 0x00
	.db 0x00
	.db 0x00
	.db 0x00
	.db 0x00
	.db 0x00
	.db 0x00
	.db 0x00
	.db 0x00
	.db 0x00
	.db 0x00
	.db 0x00
	.db 0x00
	.db 0x00
	.db 0x00
	.db 0x00
	.db 0x00
	.db 0x00
	.db 0x00
	.db 0x00
	.db 0x00
	.db 0x00
	.db 0x00
	.db 0x00
	.db 0x00
	.db 0x00
	.db 0x00
	.db 0x00
	.db 0x00
	.db 0x00
	.db 0x00
	.db 0x00
	.db 0x00
	.db 0x00
	.db 0x00
	.db 0x00
	.db 0x00
	.db 0x00
	.db 0x00
	.db 0x00
	.db 0x00
	.db 0x00
	.db 0x00
	.db 0x00
	.db 0x00
	.db 0x00
	.db 0x00
	.db 0x00
	.db 0x00
	.db 0x00
	.db 0x00
	.db 0x00
	.db 0x00
	.db 0x00
	.db 0x00
	.db 0x00
	.db 0x00
	.db 0x00
	.db 0x00
	.db 0x00
	.db 0x00
	.db 0x00
	.db 0x00
	.db 0x00
	.db 0x00
	.db 0x00
	.db 0x00
	.db 0x00
	.db 0x00
	.db 0x00
	.db 0x00
	.db 0x00
	.db 0x00
	.db 0x00
	.db 0x00
	.db 0x00
	.db 0x00
	.db 0x00
	.db 0x00
	.db 0x00
	.db 0x00
	.db 0x00
	.db 0x00
	.db 0x00
	.db 0x00
	.db 0x00
	.db 0x00
	.db 0x00
	.db 0x00
	.db 0x00
	.db 0x00
	.db 0x00
	.db 0x00
	.db 0x00
	.db 0x00
	.db 0x00
	.db 0x00
	.db 0x00
	.db 0x00
	.db 0x00
	.db 0x00
	.db 0x00
	.db 0x00
	.db 0x00
	.db 0x00
	.db 0x00
	.db 0x00
	.db 0x00
	.db 0x00
	.db 0x00
	.db 0x00
	.db 0x00
	.db 0x00
	.db 0x00
	.db 0x00
	.db 0x00
	.db 0x00
	.db 0x00
	.db 0x00
	.db 0x00
	.db 0x00
	.db 0x00
	.db 0x00
	.db 0x00
	.db 0x00
	.db 0x00
	.db 0x00
	.db 0x00
	.db 0x00
	.db 0x00
	.db 0x00
	.db 0x00
	.db 0x00
	.db 0x00
	.db 0x00
	.db 0x00
	.db 0x00
	.db 0x00
	.db 0x00
	.db 0x00
	.db 0x00
	.db 0x00
	.db 0x00
	.db 0x00
	.db 0x00
	.db 0x00
	.db 0x00
	.db 0x00
	.db 0x00
	.db 0x00
	.db 0x00
	.db 0x00
	.db 0x00
	.db 0x00
	.db 0x00
	.db 0x00
	.db 0x00
	.db 0x00
	.db 0x00
	.db 0x00
	.db 0x00
	.db 0x00
	.db 0x00
	.db 0x00
	.db 0x00
	.db 0x00
	.db 0x00
	.db 0x00
	.db 0x00
	.db 0x00
	.db 0x00
	.db 0x00
	.db 0x00
	.db 0x00
	.db 0x00
	.db 0x00
	.db 0x00
	.db 0x00
	.db 0x00
	.db 0x00
	.db 0x00
	.db 0x00
	.db 0x00
	.db 0x00
	.db 0x00
	.db 0x00
	.db 0x00
	.db 0x00
	.db 0x00
	.db 0x00
	.db 0x00
	.db 0x00
	.db 0x00
	.db 0x00
	.db 0x00
	.db 0x00
	.db 0x00
	.db 0x00
	.db 0x00
	.db 0x00
	.db 0x00
	.db 0x00
	.db 0x00
	.db 0x00
	.db 0x00
	.db 0x00
	.db 0x00
	.db 0x00
	.db 0x00
	.db 0x00
	.db 0x00
	.db 0x00
	.db 0x00
	.db 0x00
	.db 0x00
	.db 0x00
	.db 0x00
	.db 0x00
	.db 0x00
	.db 0x00
	.db 0x00
	.db 0x00
	.db 0x00
	.db 0x00
	.db 0x00
	.db 0x00
	.db 0x00
	.db 0x00
	.db 0x00
	.db 0x00
	.db 0x00
	.db 0x00
	.db 0x00
	.db 0x00
	.db 0x00
	.db 0x00
	.db 0x00
	.db 0x00
	.db 0x00
	.db 0x00
	.db 0x00
	.db 0x00
	.db 0x00
	.db 0x00
	.db 0x00
	.db 0x00
	.db 0x00
	.db 0x00
	.db 0x00
	.db 0x00
	.db 0x00
	.db 0x00
	.db 0x00
	.db 0x00
	.db 0x00
	.db 0x00
	.db 0x00
	.db 0x00
	.db 0x00
	.db 0x00
	.db 0x00
	.db 0x00
	.db 0x00
	.db 0x00
	.db 0x00
	.db 0x00
	.db 0x00
	.db 0x00
	.db 0x00
	.db 0x00
	.db 0x00
	.db 0x00
	.db 0x00
	.db 0x00
	.db 0x00
	.db 0x00
	.db 0x00
	.db 0x00
	.db 0x00
	.db 0x00
	.db 0x00
	.db 0x00
	.db 0x00
	.db 0x00
	.db 0x00
	.db 0x00
	.db 0x00
	.db 0x00
	.db 0x00
	.db 0x00
	.db 0x00
	.db 0x00
	.db 0x00
	.db 0x00
	.db 0x00
	.db 0x00
	.db 0x00
	.db 0x00
	.db 0x00
	.db 0x00
	.db 0x00
	.db 0x00
	.db 0x00
	.db 0x00
	.db 0x00
	.db 0x00
	.db 0x00
	.db 0x00
	.db 0x00
	.db 0x00
	.db 0x00
	.db 0x00
	.db 0x00
	.db 0x00
	.db 0x00
	.db 0x00
	.db 0x00
	.db 0x00
	.db 0x00
	.db 0x00
	.db 0x00
	.db 0x00
	.db 0x00
	.db 0x00
	.db 0x00
	.db 0x00
	.db 0x00
	.db 0x00
	.db 0x00
	.db 0x00
	.db 0x00
	.db 0x00
	.db 0x00
	.db 0x00
	.db 0x00
	.db 0x00
	.db 0x00
	.db 0x00
	.db 0x00
	.db 0x00
	.db 0x00
	.db 0x00
	.db 0x00
	.db 0x00
	.db 0x00
	.db 0x00
	.db 0x00
	.db 0x00
	.db 0x00
	.db 0x00
	.db 0x00
	.db 0x00
	.db 0x00
	.db 0x00
	.db 0x00
	.db 0x00
	.db 0x00
	.db 0x00
	.db 0x00
	.db 0x00
	.db 0x00
	.db 0x00
	.db 0x00
	.db 0x00
	.db 0x00
	.db 0x00
	.db 0x00
	.db 0x00
	.db 0x00
	.db 0x00
	.db 0x00
	.db 0x00
	.db 0x00
	.db 0x00
	.db 0x00
	.db 0x00
	.db 0x00
	.db 0x00
	.db 0x00
	.db 0x00
	.db 0x00
	.db 0x00
	.db 0x00
	.db 0x00
	.db 0x00
	.db 0x00
	.db 0x00
	.db 0x00
	.db 0x00
	.db 0x00
	.db 0x00
	.db 0x00
	.db 0x00
	.db 0x00
	.db 0x00
	.db 0x00
	.db 0x00
	.db 0x00
	.db 0x00
	.db 0x00
	.db 0x00
	.db 0x00
	.db 0x00
	.db 0x00
	.db 0x00
	.db 0x00
	.db 0x00
	.db 0x00
	.db 0x00
	.db 0x00
	.db 0x00
	.db 0x00
	.db 0x00
	.db 0x00
	.db 0x00
	.db 0x00
	.db 0x00
	.db 0x00
	.db 0x00
	.db 0x00
	.db 0x00
	.db 0x00
	.db 0x00
	.db 0x00
	.db 0x00
	.db 0x00
	.db 0x00
	.db 0x00
	.db 0x00
	.db 0x00
	.db 0x00
	.db 0x00
	.db 0x00
	.db 0x00
	.db 0x00
	.db 0x00
	.db 0x00
	.db 0x00
	.db 0x00
	.db 0x00
	.db 0x00
	.db 0x00
	.db 0x00
	.db 0x00
	.db 0x00
	.db 0x00
	.db 0x00
	.db 0x00
	.db 0x00
	.db 0x00
	.db 0x00
	.db 0x00
	.db 0x00
	.db 0x00
	.db 0x00
	.db 0x00
	.db 0x00
	.db 0x00
	.db 0x00
	.db 0x00
	.db 0x00
	.db 0x00
	.db 0x00
	.db 0x00
	.db 0x00
	.db 0x00
	.db 0x00
	.db 0x00
	.db 0x00
	.db 0x00
	.db 0x00
	.db 0x00
	.db 0x00
	.db 0x00
	.db 0x00
	.db 0x00
	.db 0x00
	.db 0x00
	.db 0x00
	.db 0x00
	.db 0x00
	.db 0x00
	.db 0x00
	.db 0x00
	.db 0x00
	.db 0x00
	.db 0x00
	.db 0x00
	.db 0x00
	.db 0x00
	.db 0x00
	.db 0x00
	.db 0x00
	.db 0x00
	.db 0x00
	.db 0x00
	.db 0x00
	.db 0x00
	.db 0x00
	.db 0x00
	.db 0x00
	.db 0x00
	.db 0x00
	.db 0x00
	.db 0x00
	.db 0x00
	.db 0x00
	.db 0x00
	.db 0x00
	.db 0x00
	.db 0x00
	.db 0x00
	.db 0x00
	.db 0x00
	.db 0x00
	.db 0x00
	.db 0x00
	.db 0x00
	.db 0x00
	.db 0x00
	.db 0x00
	.db 0x00
	.db 0x00
	.db 0x00
	.db 0x00
	.db 0x00
	.db 0x00
	.db 0x00
	.db 0x00
	.db 0x00
	.db 0x00
	.db 0x00
	.db 0x00
	.db 0x00
	.db 0x00
	.db 0x00
	.db 0x00
	.db 0x00
	.db 0x00
	.db 0x00
	.db 0x00
	.db 0x00
	.db 0x00
	.db 0x00
	.db 0x00
	.db 0x00
	.db 0x00
	.db 0x00
	.db 0x00
	.db 0x00
	.db 0x00
	.db 0x00
	.db 0x00
	.db 0x00
	.db 0x00
	.db 0x00
	.db 0x00
	.db 0x00
	.db 0x00
	.db 0x00
	.db 0x00
	.db 0x00
	.db 0x00
	.db 0x00
	.db 0x00
	.db 0x00
	.db 0x00
	.db 0x00
	.db 0x00
	.db 0x00
	.db 0x00
	.db 0x00
	.db 0x00
	.db 0x00
	.db 0x00
	.db 0x00
	.db 0x00
	.db 0x00
	.db 0x00
	.db 0x00
	.db 0x00
	.db 0x00
	.db 0x00
	.db 0x00
	.db 0x00
	.db 0x00
	.db 0x00
	.db 0x00
	.db 0x00
	.db 0x00
	.db 0x00
	.db 0x00
	.db 0x00
	.db 0x00
	.db 0x00
	.db 0x00
	.db 0x00
	.db 0x00
	.db 0x00
	.db 0x00
	.db 0x00
	.db 0x00
	.db 0x00
	.db 0x00
	.db 0x00
	.db 0x00
	.db 0x00
	.db 0x00
	.db 0x00
	.db 0x00
	.db 0x00
	.db 0x00
	.db 0x00
	.db 0x00
	.db 0x00
	.db 0x00
	.db 0x00
	.db 0x00
	.db 0x00
	.db 0x00
	.db 0x00
	.db 0x00
	.db 0x00
	.db 0x00
	.db 0x00
	.db 0x00
	.db 0x00
	.db 0x00
	.db 0x00
	.db 0x00
	.db 0x00
	.db 0x00
	.db 0x00
	.db 0x00
	.db 0x00
	.db 0x00
	.db 0x00
	.db 0x00
	.db 0x00
	.db 0x00
	.db 0x00
	.db 0x00
	.db 0x00
	.db 0x00
	.db 0x00
	.db 0x00
	.db 0x00
	.db 0x00
	.db 0x00
	.db 0x00
	.db 0x00
	.db 0x00
	.db 0x00
	.db 0x00
	.db 0x00
	.db 0x00
	.db 0x00
	.db 0x00
	.db 0x00
	.db 0x00
	.db 0x00
	.db 0x00
	.db 0x00
	.db 0x00
	.db 0x00
	.db 0x00
	.db 0x00
	.db 0x00
	.db 0x00
	.db 0x00
	.db 0x00
	.db 0x00
	.db 0x00
	.db 0x00
	.db 0x00
	.db 0x00
	.db 0x00
	.db 0x00
	.db 0x00
	.db 0x00
	.db 0x00
	.db 0x00
	.db 0x00
	.db 0x00
	.area XINIT   (CODE)
	.area CABS    (ABS,CODE)
